
kernel/kernel:     file format elf32-i386

Contents of section .text:
 100000 02b0ad1b 03000000 fb4f52e4 bc40b910  .........OR..@..
 100010 0031ed50 5383ec06 668b0d28 60100066  .1.PS...f..(`..f
 100020 890c24b9 00601000 894c2402 0f011424  ..$..`...L$....$
 100030 83c4066a 08683b00 1000cb66 b910008e  ...j.h;....f....
 100040 d98ec18e e18ee98e d1e88c01 0000eb00  ................
 100050 ebfe6a00 6a00e955 0100006a 006a01e9  ..j.j..U...j.j..
 100060 4c010000 6a006a02 e9430100 006a006a  L...j.j..C...j.j
 100070 03e93a01 00006a00 6a04e931 0100006a  ..:...j.j..1...j
 100080 006a05e9 28010000 6a006a06 e91f0100  .j..(...j.j.....
 100090 006a006a 07e91601 00006a08 e90f0100  .j.j......j.....
 1000a0 006a006a 09e90601 00006a0a e9ff0000  .j.j......j.....
 1000b0 006a0be9 f8000000 6a0ce9f1 0000006a  .j......j......j
 1000c0 0de9ea00 00006a0e e9e30000 006a006a  ......j......j.j
 1000d0 0fe9da00 00006a00 6a10e9d1 0000006a  ......j.j......j
 1000e0 11e9ca00 00006a00 6a12e9c1 0000006a  ......j.j......j
 1000f0 006a13e9 b8000000 6a006a14 e9af0000  .j......j.j.....
 100100 006a006a 15e9a600 00006a00 6a16e99d  .j.j......j.j...
 100110 0000006a 006a17e9 94000000 6a006a18  ...j.j......j.j.
 100120 e98b0000 006a006a 19e98200 00006a00  .....j.j......j.
 100130 6a1aeb7c 6a006a1b eb766a00 6a1ceb70  j..|j.j..vj.j..p
 100140 6a006a1d eb6a6a1e eb666a00 6a1feb60  j.j..jj..fj.j..`
 100150 6a006a20 eb5a6a00 6a21eb54 6a006a22  j.j .Zj.j!.Tj.j"
 100160 eb4e6a00 6a23eb48 6a006a24 eb426a00  .Nj.j#.Hj.j$.Bj.
 100170 6a25eb3c 6a006a26 eb366a00 6a27eb30  j%.<j.j&.6j.j'.0
 100180 6a006a28 eb2a6a00 6a29eb24 6a006a2a  j.j(.*j.j).$j.j*
 100190 eb1e6a00 6a2beb18 6a006a2c eb126a00  ..j.j+..j.j,..j.
 1001a0 6a2deb0c 6a006a2e eb066a00 6a2feb00  j-..j.j...j.j/..
 1001b0 601e060f a00fa8b8 10000000 8ed88ec0  `...............
 1001c0 8ee08ee8 54b8f113 1000ffd0 83c4040f  ....T...........
 1001d0 a90fa107 1f6183c4 08cf5589 e55383ec  .....a....U..S..
 1001e0 248b4508 83c01c89 0424e8d8 030000c7  $.E......$......
 1001f0 44240419 000000c7 04245000 0000e86a  D$.......$P....j
 100200 230000ba 40b91000 b8000010 0029c289  #...@........)..
 100210 d08945f0 c7042400 401000e8 d6270000  ..E...$.@....'..
 100220 c7042424 401000e8 ca270000 c7042450  ..$$@....'....$P
 100230 401000e8 be270000 8b45f0c1 e80a8944  @....'...E.....D
 100240 240cc744 240840b9 1000c744 24040000  $..D$.@....D$...
 100250 1000c704 24984010 00e80824 0000c704  ....$.@....$....
 100260 24c64010 00e88c27 0000e875 070000e8  $.@....'...u....
 100270 e6120000 fbc74424 04000000 00c70424  ......D$.......$
 100280 02000000 e8982700 00c70424 db401000  ......'....$.@..
 100290 e8612700 00c74424 04000000 00c70424  .a'...D$.......$
 1002a0 07000000 e8782700 00c74424 04000000  .....x'...D$....
 1002b0 00c70424 09000000 e8642700 00c70424  ...$.....d'....$
 1002c0 e0401000 e82d2700 00c74424 04000000  .@...-'...D$....
 1002d0 00c70424 07000000 e8442700 008b450c  ...$.....D'...E.
 1002e0 89442404 c70424f3 401000e8 76230000  .D$...$.@...v#..
 1002f0 817d0c02 b0ad2b75 36c74424 04000000  .}....+u6.D$....
 100300 00c70424 02000000 e8142700 00c70424  ...$......'....$
 100310 0b411000 e8dd2600 00c74424 04000000  .A....&...D$....
 100320 00c70424 07000000 e8f42600 00eb34c7  ...$......&...4.
 100330 44240400 000000c7 04240200 0000e8de  D$.......$......
 100340 260000c7 04241041 1000e8a7 260000c7  &....$.A....&...
 100350 44240400 000000c7 04240700 0000e8be  D$.......$......
 100360 2600008d 45088944 2404c704 24184110  &...E..D$...$.A.
 100370 00e8f022 00008b45 088b0083 e04085c0  ..."...E.....@..
 100380 0f845e01 0000c744 24040000 0000c704  ..^....D$.......
 100390 24020000 00e88726 0000c704 243c4110  $......&....$<A.
 1003a0 00e85026 0000c744 24040000 0000c704  ..P&...D$.......
 1003b0 24070000 00e86726 00008b45 088b4030  $.....g&...E..@0
 1003c0 8945f4e9 8c000000 8b45f48b 108b45f4  .E.......E....E.
 1003d0 01d083c0 048945f4 8b45f48b 50108b40  ......E..E..P..@
 1003e0 0c89c2a1 14701000 01d0a314 7010008b  .....p......p...
 1003f0 45f48b48 148b45f4 8b50108b 400cc1e8  E..H..E..P..@...
 100400 0a89c38b 45f48b50 088b4004 894c240c  ....E..P..@..L$.
 100410 895c2408 89442404 c7042468 411000e8  .\$..D$...$hA...
 100420 42220000 8b45f48b 401483f8 0175258b  B"...E..@....u%.
 100430 45f48b50 108b400c 89c2a160 70100001  E..P..@....`p...
 100440 d0a36070 10008b45 f48b5008 8b4004a3  ..`p...E..P..@..
 100450 48701000 8b45088b 50308b45 088b402c  Hp...E..P0.E..@,
 100460 01d03b45 f40f875d ffffffa1 14701000  ..;E...].....p..
 100470 c1e80aa3 14701000 a1607010 00c1e80a  .....p...`p.....
 100480 a3607010 00a11470 10008944 2404c704  .`p....p...D$...
 100490 24944110 00e8cc21 0000a160 70100089  $.A....!...`p...
 1004a0 442404c7 0424ab41 1000e8b7 210000a1  D$...$.A....!...
 1004b0 60701000 c1e00a2b 45f089c2 b840b910  `p.....+E....@..
 1004c0 00895424 04890424 e8461400 00e82f15  ..T$...$.F..../.
 1004d0 000066a1 00000000 668b0d00 00000066  ..f.....f......f
 1004e0 f7f1eb5e 8b45088b 0083e001 85c07452  ...^.E........tR
 1004f0 c7442404 00000000 c7042404 000000e8  .D$.......$.....
 100500 1d250000 c70424c8 411000e8 e6240000  .%....$.A....$..
 100510 8b45088b 50088b45 088b4004 01d08944  .E..P..E..@....D
 100520 2404c704 24944110 00e83821 0000c744  $...$.A...8!...D
 100530 24040000 0000c704 24070000 00e8df24  $.......$......$
 100540 0000c744 24040000 0000c704 24090000  ...D$.......$...
 100550 00e8cb24 0000c704 24fd4110 00e89424  ...$....$.A....$
 100560 0000c744 24040000 0000c704 24070000  ...D$.......$...
 100570 00e8ab24 0000e89e 120000c7 0424e803  ...$.........$..
 100580 0000e8d7 110000e8 a6160000 e8bb1900  ................
 100590 00e85211 00008b45 f0c1e80a 8944240c  ..R....E.....D$.
 1005a0 c7442408 40b91000 c7442404 00001000  .D$.@....D$.....
 1005b0 c7042410 421000e8 aa200000 e8401400  ..$.B.... ...@..
 1005c0 0083c424 5b5dc355 89e583ec 288b4508  ...$[].U....(.E.
 1005d0 8b400889 45f08b45 088b500c 89d0c1e0  .@..E..E..P.....
 1005e0 0201d0c1 e00389c2 8b45f001 d08b400c  .........E....@.
 1005f0 8945ecc7 45f40000 0000e9c2 0000008b  .E..E...........
 100600 55f489d0 c1e00201 d0c1e003 89c28b45  U..............E
 100610 f001d08b 108b45ec 01d08945 e8c74424  ......E....E..D$
 100620 04304210 008b45e8 890424e8 832b0000  .0B...E...$..+..
 100630 85c0753a 8b55f489 d0c1e002 01d0c1e0  ..u:.U..........
 100640 0389c28b 45f001d0 8b400ca3 6c701000  ....E....@..lp..
 100650 8b55f489 d0c1e002 01d0c1e0 0389c28b  .U..............
 100660 45f001d0 8b4014a3 70701000 eb4fc744  E....@..pp...O.D
 100670 24043842 10008b45 e8890424 e8322b00  $.8B...E...$.2+.
 100680 0085c075 388b55f4 89d0c1e0 0201d0c1  ...u8.U.........
 100690 e00389c2 8b45f001 d08b400c a3647010  .....E....@..dp.
 1006a0 008b55f4 89d0c1e0 0201d0c1 e00389c2  ..U.............
 1006b0 8b45f001 d08b4014 a3687010 008345f4  .E....@..hp...E.
 1006c0 018b4508 8b003b45 f40f8730 ffffffc9  ..E...;E...0....
 1006d0 c35589e5 83ec10c7 45fc0000 0000eb77  .U......E......w
 1006e0 a1647010 008b55fc c1e20401 d00fb640  .dp...U........@
 1006f0 0c0fb6c0 83e00f83 f8027402 eb55a164  ..........t..U.d
 100700 7010008b 55fcc1e2 0401d08b 40043b45  p...U.......@.;E
 100710 087740a1 64701000 8b55fcc1 e20401d0  .w@.dp...U......
 100720 8b5004a1 64701000 8b4dfcc1 e10401c8  .P..dp...M......
 100730 8b400801 d03b4508 76198b15 6c701000  .@...;E.v...lp..
 100740 a1647010 008b4dfc c1e10401 c88b0001  .dp...M.........
 100750 d0eb1a83 45fc01a1 68701000 c1e8043b  ....E...hp.....;
 100760 45fc0f87 78ffffff b8000000 00c9c355  E...x..........U
 100770 89e55653 83ec20c7 04244042 1000e873  ..VS.. ..$@B...s
 100780 22000089 e88945f4 8b45f483 c0048945  ".....E..E.....E
 100790 f08b45f4 8b008945 f4eb648b 45f483c0  ..E....E..d.E...
 1007a0 048945f0 8b1d5c70 1000a158 701000d1  ..E...\p...Xp...
 1007b0 e889c6c7 04244042 1000e850 2a0000d1  .....$@B...P*...
 1007c0 e829c689 f0895c24 04890424 e8972200  .)....\$...$..".
 1007d0 008b45f0 8b008904 24e8f3fe ffff8b55  ..E.....$......U
 1007e0 f08b1289 44240889 542404c7 04245542  ....D$..T$...$UB
 1007f0 1000e86f 1e00008b 45f48b00 8945f483  ...o....E....E..
 100800 7df40075 9683c420 5b5e5dc3 5589e58b  }..u... [^].U...
 100810 450c8b55 0883ec06 66890424 89542402  E..U....f..$.T$.
 100820 0f011c24 83c4065d c35589e5 83ec088b  ...$...].U......
 100830 55108b45 148855fc 8845f88b 450c89c2  U..E..U..E..E...
 100840 8b450866 89108b45 0866c740 0208008b  .E.f...E.f.@....
 100850 4508c640 04000fb6 45f8c1e0 050a45fc  E..@....E.....E.
 100860 83c88089 c28b4508 8850058b 450cc1e8  ......E..P..E...
 100870 1089c28b 45086689 5006c9c3 5589e583  ....E.f.P...U...
 100880 ec18c704 24614210 00e8ef21 0000c9c3  ....$aB....!....
 100890 5589e583 ec18c704 246e4210 00e8db21  U.......$nB....!
 1008a0 0000c9c3 5589e583 ec18c704 24744210  ....U.......$tB.
 1008b0 00e8c721 0000c9c3 5589e583 ec18c704  ...!....U.......
 1008c0 247f4210 00e8b321 0000c9c3 5589e583  $.B....!....U...
 1008d0 ec18c704 24884210 00e89f21 0000c9c3  ....$.B....!....
 1008e0 5589e583 ec18c704 249c4210 00e88b21  U.......$.B....!
 1008f0 0000c9c3 5589e583 ec18c704 24ab4210  ....U.......$.B.
 100900 00e87721 0000c9c3 5589e583 ec18c704  ..w!....U.......
 100910 24bf4210 00e86321 0000c9c3 5589e583  $.B...c!....U...
 100920 ec18c704 24cc4210 00e84f21 0000c9c3  ....$.B...O!....
 100930 5589e583 ec18c704 24e84210 00e83b21  U.......$.B...;!
 100940 0000c9c3 5589e583 ec18c704 24f44210  ....U.......$.B.
 100950 00e82721 0000c9c3 5589e583 ec18c704  ..'!....U.......
 100960 24084310 00e81321 0000c9c3 5589e583  $.C....!....U...
 100970 ec18c704 241c4310 00e8ff20 0000c9c3  ....$.C.... ....
 100980 5589e583 ec18c704 241f4310 00e8eb20  U.......$.C.... 
 100990 0000c9c3 5589e583 ec18c704 242a4310  ....U.......$*C.
 1009a0 00e8d720 0000c9c3 5589e583 ec18c704  ... ....U.......
 1009b0 243f4310 00e8c320 0000c9c3 5589e583  $?C.... ....U...
 1009c0 ec18c704 244f4310 00e8af20 0000c9c3  ....$OC.... ....
 1009d0 5589e583 ec18c704 245d4310 00e89b20  U.......$]C.... 
 1009e0 0000c9c3 5589e583 ec18c744 24080008  ....U......D$...
 1009f0 0000c744 24040000 0000c704 24407110  ...D$.......$@q.
 100a00 00e86625 0000c744 240c0000 0000c744  ..f%...D$......D
 100a10 24080e00 0000c744 24045200 1000c704  $......D$.R.....
 100a20 24407110 00e8fffd ffffc744 240c0000  $@q........D$...
 100a30 0000c744 24080e00 0000c744 24045b00  ...D$......D$.[.
 100a40 1000c704 24487110 00e8dbfd ffffc744  ....$Hq........D
 100a50 240c0000 0000c744 24080e00 0000c744  $......D$......D
 100a60 24046400 1000c704 24507110 00e8b7fd  $.d.....$Pq.....
 100a70 ffffc744 240c0000 0000c744 24080e00  ...D$......D$...
 100a80 0000c744 24046d00 1000c704 24587110  ...D$.m.....$Xq.
 100a90 00e893fd ffffc744 240c0000 0000c744  .......D$......D
 100aa0 24080e00 0000c744 24047600 1000c704  $......D$.v.....
 100ab0 24607110 00e86ffd ffffc744 240c0000  $`q...o....D$...
 100ac0 0000c744 24080e00 0000c744 24047f00  ...D$......D$...
 100ad0 1000c704 24687110 00e84bfd ffffc744  ....$hq...K....D
 100ae0 240c0000 0000c744 24080e00 0000c744  $......D$......D
 100af0 24048800 1000c704 24707110 00e827fd  $.......$pq...'.
 100b00 ffffc744 240c0000 0000c744 24080e00  ...D$......D$...
 100b10 0000c744 24049100 1000c704 24787110  ...D$.......$xq.
 100b20 00e803fd ffffc744 240c0000 0000c744  .......D$......D
 100b30 24080e00 0000c744 24049a00 1000c704  $......D$.......
 100b40 24807110 00e8dffc ffffc744 240c0000  $.q........D$...
 100b50 0000c744 24080e00 0000c744 2404a100  ...D$......D$...
 100b60 1000c704 24887110 00e8bbfc ffffc744  ....$.q........D
 100b70 240c0000 0000c744 24080e00 0000c744  $......D$......D
 100b80 2404aa00 1000c704 24907110 00e897fc  $.......$.q.....
 100b90 ffffc744 240c0000 0000c744 24080e00  ...D$......D$...
 100ba0 0000c744 2404b100 1000c704 24987110  ...D$.......$.q.
 100bb0 00e873fc ffffc744 240c0000 0000c744  ..s....D$......D
 100bc0 24080e00 0000c744 2404b800 1000c704  $......D$.......
 100bd0 24a07110 00e84ffc ffffc744 240c0000  $.q...O....D$...
 100be0 0000c744 24080e00 0000c744 2404bf00  ...D$......D$...
 100bf0 1000c704 24a87110 00e82bfc ffffc744  ....$.q...+....D
 100c00 240c0000 0000c744 24080e00 0000c744  $......D$......D
 100c10 2404c600 1000c704 24b07110 00e807fc  $.......$.q.....
 100c20 ffffc744 240c0000 0000c744 24080e00  ...D$......D$...
 100c30 0000c744 2404cd00 1000c704 24b87110  ...D$.......$.q.
 100c40 00e8e3fb ffffc744 240c0000 0000c744  .......D$......D
 100c50 24080e00 0000c744 2404d600 1000c704  $......D$.......
 100c60 24c07110 00e8bffb ffffc744 240c0000  $.q........D$...
 100c70 0000c744 24080e00 0000c744 2404df00  ...D$......D$...
 100c80 1000c704 24c87110 00e89bfb ffffc744  ....$.q........D
 100c90 240c0000 0000c744 24080e00 0000c744  $......D$......D
 100ca0 2404e600 1000c704 24d07110 00e877fb  $.......$.q...w.
 100cb0 ffffc744 240c0000 0000c744 24080e00  ...D$......D$...
 100cc0 0000c744 2404ef00 1000c704 24d87110  ...D$.......$.q.
 100cd0 00e853fb ffffc744 240c0000 0000c744  ..S....D$......D
 100ce0 24080e00 0000c744 2404f800 1000c704  $......D$.......
 100cf0 24e07110 00e82ffb ffffc744 240c0000  $.q.../....D$...
 100d00 0000c744 24080e00 0000c744 24040101  ...D$......D$...
 100d10 1000c704 24e87110 00e80bfb ffffc744  ....$.q........D
 100d20 240c0000 0000c744 24080e00 0000c744  $......D$......D
 100d30 24040a01 1000c704 24f07110 00e8e7fa  $.......$.q.....
 100d40 ffffc744 240c0000 0000c744 24080e00  ...D$......D$...
 100d50 0000c744 24041301 1000c704 24f87110  ...D$.......$.q.
 100d60 00e8c3fa ffffc744 240c0000 0000c744  .......D$......D
 100d70 24080e00 0000c744 24041c01 1000c704  $......D$.......
 100d80 24007210 00e89ffa ffffc744 240c0000  $.r........D$...
 100d90 0000c744 24080e00 0000c744 24042501  ...D$......D$.%.
 100da0 1000c704 24087210 00e87bfa ffffc744  ....$.r...{....D
 100db0 240c0000 0000c744 24080e00 0000c744  $......D$......D
 100dc0 24042e01 1000c704 24107210 00e857fa  $.......$.r...W.
 100dd0 ffffc744 240c0000 0000c744 24080e00  ...D$......D$...
 100de0 0000c744 24043401 1000c704 24187210  ...D$.4.....$.r.
 100df0 00e833fa ffffc744 240c0000 0000c744  ..3....D$......D
 100e00 24080e00 0000c744 24043a01 1000c704  $......D$.:.....
 100e10 24207210 00e80ffa ffffc744 240c0000  $ r........D$...
 100e20 0000c744 24080e00 0000c744 24044001  ...D$......D$.@.
 100e30 1000c704 24287210 00e8ebf9 ffffc744  ....$(r........D
 100e40 240c0000 0000c744 24080e00 0000c744  $......D$......D
 100e50 24044601 1000c704 24307210 00e8c7f9  $.F.....$0r.....
 100e60 ffffc744 240c0000 0000c744 24080e00  ...D$......D$...
 100e70 0000c744 24044a01 1000c704 24387210  ...D$.J.....$8r.
 100e80 00e8a3f9 ffffc744 240c0000 0000c744  .......D$......D
 100e90 24080e00 0000c744 24045001 1000c704  $......D$.P.....
 100ea0 24407210 00e87ff9 ffffc744 240c0000  $@r........D$...
 100eb0 0000c744 24080e00 0000c744 24045001  ...D$......D$.P.
 100ec0 1000c704 24407210 00e85bf9 ffffc744  ....$@r...[....D
 100ed0 240c0000 0000c744 24080e00 0000c744  $......D$......D
 100ee0 24045601 1000c704 24487210 00e837f9  $.V.....$Hr...7.
 100ef0 ffffc744 240c0000 0000c744 24080e00  ...D$......D$...
 100f00 0000c744 24045c01 1000c704 24507210  ...D$.\.....$Pr.
 100f10 00e813f9 ffffc744 240c0000 0000c744  .......D$......D
 100f20 24080e00 0000c744 24046201 1000c704  $......D$.b.....
 100f30 24587210 00e8eff8 ffffc744 240c0000  $Xr........D$...
 100f40 0000c744 24080e00 0000c744 24046801  ...D$......D$.h.
 100f50 1000c704 24607210 00e8cbf8 ffffc744  ....$`r........D
 100f60 240c0000 0000c744 24080e00 0000c744  $......D$......D
 100f70 24046e01 1000c704 24687210 00e8a7f8  $.n.....$hr.....
 100f80 ffffc744 240c0000 0000c744 24080e00  ...D$......D$...
 100f90 0000c744 24047401 1000c704 24707210  ...D$.t.....$pr.
 100fa0 00e883f8 ffffc744 240c0000 0000c744  .......D$......D
 100fb0 24080e00 0000c744 24047a01 1000c704  $......D$.z.....
 100fc0 24787210 00e85ff8 ffffc744 240c0000  $xr..._....D$...
 100fd0 0000c744 24080e00 0000c744 24048001  ...D$......D$...
 100fe0 1000c704 24807210 00e83bf8 ffffc744  ....$.r...;....D
 100ff0 240c0000 0000c744 24080e00 0000c744  $......D$......D
 101000 24048601 1000c704 24887210 00e817f8  $.......$.r.....
 101010 ffffc744 240c0000 0000c744 24080e00  ...D$......D$...
 101020 0000c744 24048c01 1000c704 24907210  ...D$.......$.r.
 101030 00e8f3f7 ffffc744 240c0000 0000c744  .......D$......D
 101040 24080e00 0000c744 24049201 1000c704  $......D$.......
 101050 24987210 00e8cff7 ffffc744 240c0000  $.r........D$...
 101060 0000c744 24080e00 0000c744 24049801  ...D$......D$...
 101070 1000c704 24a07210 00e8abf7 ffffc744  ....$.r........D
 101080 240c0000 0000c744 24080e00 0000c744  $......D$......D
 101090 24049e01 1000c704 24a87210 00e887f7  $.......$.r.....
 1010a0 ffffc744 240c0000 0000c744 24080e00  ...D$......D$...
 1010b0 0000c744 2404a401 1000c704 24b07210  ...D$.......$.r.
 1010c0 00e863f7 ffffc744 240c0000 0000c744  ..c....D$......D
 1010d0 24080e00 0000c744 2404aa01 1000c704  $......D$.......
 1010e0 24b87210 00e83ff7 ffffb840 711000c7  $.r...?....@q...
 1010f0 442404ff 07000089 0424e80d f7ffffc7  D$.......$......
 101100 4424087c 081000c7 44240400 000000c7  D$.|....D$......
 101110 04240000 0000e8de 010000c7 44240890  .$..........D$..
 101120 081000c7 44240401 000000c7 04240000  ....D$.......$..
 101130 0000e8c2 010000c7 442408a4 081000c7  ........D$......
 101140 44240403 000000c7 04240000 0000e8a6  D$.......$......
 101150 010000c7 442408b8 081000c7 44240404  ....D$......D$..
 101160 000000c7 04240000 0000e88a 010000c7  .....$..........
 101170 442408cc 081000c7 44240405 000000c7  D$......D$......
 101180 04240000 0000e86e 010000c7 442408e0  .$.....n....D$..
 101190 081000c7 44240406 000000c7 04240000  ....D$.......$..
 1011a0 0000e852 010000c7 442408f4 081000c7  ...R....D$......
 1011b0 44240407 000000c7 04240000 0000e836  D$.......$.....6
 1011c0 010000c7 44240808 091000c7 44240408  ....D$......D$..
 1011d0 000000c7 04240000 0000e81a 010000c7  .....$..........
 1011e0 4424081c 091000c7 44240409 000000c7  D$......D$......
 1011f0 04240000 0000e8fe 000000c7 44240830  .$..........D$.0
 101200 091000c7 4424040a 000000c7 04240000  ....D$.......$..
 101210 0000e8e2 000000c7 44240844 091000c7  ........D$.D....
 101220 4424040b 000000c7 04240000 0000e8c6  D$.......$......
 101230 000000c7 44240858 091000c7 4424040c  ....D$.X....D$..
 101240 000000c7 04240000 0000e8aa 000000c7  .....$..........
 101250 4424086c 091000c7 4424040d 000000c7  D$.l....D$......
 101260 04240000 0000e88e 000000c7 44240880  .$..........D$..
 101270 091000c7 4424040e 000000c7 04240000  ....D$.......$..
 101280 0000e872 000000c7 44240894 091000c7  ...r....D$......
 101290 44240410 000000c7 04240000 0000e856  D$.......$.....V
 1012a0 000000c7 442408a8 091000c7 44240411  ....D$......D$..
 1012b0 000000c7 04240000 0000e83a 000000c7  .....$.....:....
 1012c0 442408bc 091000c7 44240412 000000c7  D$......D$......
 1012d0 04240000 0000e81e 000000c7 442408d0  .$..........D$..
 1012e0 091000c7 44240413 000000c7 04240000  ....D$.......$..
 1012f0 0000e802 000000c9 c35589e5 8b450885  .........U...E..
 101300 c0740783 f8017411 eb1e8b45 0c8b5510  .t....t....E..U.
 101310 89148580 701000eb 1d8b450c 8b551089  ....p.....E..U..
 101320 14850071 1000eb0e 8b450c8b 55108914  ...q.....E..U...
 101330 85807010 00905dc3 5589e583 ec288b45  ..p...].U....(.E
 101340 088b4030 83e82088 45f70fb6 45f78b04  ..@0.. .E...E...
 101350 85807010 0085c074 130fb645 f78b0485  ..p....t...E....
 101360 80701000 8b550889 1424ffd0 e8b10100  .p...U...$......
 101370 00e8c801 0000c9c3 5589e583 ec288b45  ........U....(.E
 101380 088b4030 83e82088 45f7807d f7077513  ..@0.. .E..}..u.
 101390 e8350100 000fb7c0 25800000 0085c075  .5......%......u
 1013a0 02eb4c80 7df70f75 0ce81c01 00006685  ..L.}..u......f.
 1013b0 c07802eb 3a0fb645 f78b0485 00711000  .x..:..E.....q..
 1013c0 85c07415 0fb645f7 8b048500 7110008b  ..t...E.....q...
 1013d0 55088914 24ffd0eb 0cc70424 77431000  U...$......$wC..
 1013e0 e8981600 00e83801 0000e84f 010000c9  ......8....O....
 1013f0 c35589e5 83ec188b 45088b40 3083f81f  .U......E..@0...
 101400 770d8b45 08890424 e82bffff ffeb268b  w..E...$.+....&.
 101410 45088b40 3083f81f 761b8b45 088b4030  E..@0...v..E..@0
 101420 83f83077 108b4508 890424e8 48ffffff  ..0w..E...$.H...
 101430 e8ed0000 00c9c355 89e583ec 088b5508  .......U......U.
 101440 8b450c66 8955fc88 45f80fb6 45f80fb7  .E.f.U..E...E...
 101450 55fceec9 c35589e5 83ec148b 45086689  U....U......E.f.
 101460 45ec0fb7 45ec89c2 ec8845ff 0fb645ff  E...E.....E...E.
 101470 c9c35589 e55383ec 08c74424 040a0000  ..U..S....D$....
 101480 00c70424 20000000 e8aaffff ffc74424  ...$ .........D$
 101490 040a0000 00c70424 a0000000 e896ffff  .......$........
 1014a0 ffc70424 20000000 e8a8ffff ff0fb6d8  ...$ ...........
 1014b0 c70424a0 000000e8 99ffffff 0fb6c0c1  ..$.............
 1014c0 e00809d8 83c4085b 5dc35589 e55383ec  .......[].U..S..
 1014d0 08c74424 040b0000 00c70424 20000000  ..D$.......$ ...
 1014e0 e852ffff ffc74424 040b0000 00c70424  .R....D$.......$
 1014f0 a0000000 e83effff ffc70424 20000000  .....>.....$ ...
 101500 e850ffff ff0fb6d8 c70424a0 000000e8  .P........$.....
 101510 41ffffff 0fb6c0c1 e00809d8 83c4085b  A..............[
 101520 5dc35589 e583ec08 c7442404 20000000  ].U......D$. ...
 101530 c7042420 000000e8 fbfeffff c9c35589  ..$ ..........U.
 101540 e583ec08 c7442404 20000000 c70424a0  .....D$. .....$.
 101550 000000e8 dffeffff c9c35589 e583ec18  ..........U.....
 101560 c645ff20 c645feff c645fdff c7442404  .E. .E...E...D$.
 101570 11000000 c7042420 000000e8 b7feffff  ......$ ........
 101580 c7442404 11000000 c70424a0 000000e8  .D$.......$.....
 101590 a3feffff 0fb645ff 89442404 c7042421  ......E..D$...$!
 1015a0 000000e8 8ffeffff 0fb645ff 83c0080f  ..........E.....
 1015b0 b6c08944 2404c704 24a10000 00e875fe  ...D$...$.....u.
 1015c0 ffffc744 24040400 0000c704 24210000  ...D$.......$!..
 1015d0 00e861fe ffffc744 24040200 0000c704  ..a....D$.......
 1015e0 24a10000 00e84dfe ffffc744 24040100  $.....M....D$...
 1015f0 0000c704 24210000 00e839fe ffffc744  ....$!....9....D
 101600 24040100 0000c704 24a10000 00e825fe  $.......$.....%.
 101610 ffff0fb6 45fe8944 2404c704 24210000  ....E..D$...$!..
 101620 00e811fe ffff0fb6 45fd8944 2404c704  ........E..D$...
 101630 24a10000 00e8fdfd ffffe8e3 feffffe8  $...............
 101640 fafeffff c9c35589 e583ec08 8b55088b  ......U......U..
 101650 450c6689 55fc8845 f80fb645 f80fb755  E.f.U..E...E...U
 101660 fceec9c3 5589e583 ec148b45 08668945  ....U......E.f.E
 101670 ec0fb745 ec89c2ec 8845ff0f b645ffc9  ...E.....E...E..
 101680 c35589e5 83ec180f b6050e70 100084c0  .U.........p....
 101690 7454e878 0e00000f b6050c70 1000a220  tT.x.......p... 
 1016a0 701000c7 04246000 0000e8b5 ffffffa2  p....$`.........
 1016b0 0c701000 0fb6050c 70100084 c078270f  .p......p....x'.
 1016c0 b6052070 10003cf0 751c0fb6 050c7010  .. p..<.u.....p.
 1016d0 000fb6c0 0fb68040 6010000f bec08904  .......@`.......
 1016e0 24e8f610 0000c9c3 5589e583 ec18c605  $.......U.......
 1016f0 0e701000 00c74424 08811610 00c74424  .p....D$......D$
 101700 04010000 00c70424 01000000 e8e8fbff  .......$........
 101710 ffc74424 04fc0000 00c70424 21000000  ..D$.......$!...
 101720 e821ffff ffc6050e 70100001 c9c35589  .!......p.....U.
 101730 e583ec08 8b55088b 450c6689 55fc8845  .....U..E.f.U..E
 101740 f80fb645 f80fb755 fceec9c3 5589e5a1  ...E...U....U...
 101750 3c701000 83c001a3 3c701000 5dc35589  <p......<p..].U.
 101760 e583ec28 c7053c70 10000000 0000b8de  ...(..<p........
 101770 341200ba 00000000 f7750889 45f4c744  4........u..E..D
 101780 24043600 0000c704 24430000 00e89cff  $.6.....$C......
 101790 ffff8b45 f40fb6c0 8945f08b 45f4c1f8  ...E.....E..E...
 1017a0 080fb6c0 8945ec8b 45f00fb6 c0894424  .....E..E.....D$
 1017b0 04c70424 40000000 e871ffff ff8b45ec  ...$@....q....E.
 1017c0 0fb6c089 442404c7 04244000 0000e85b  ....D$...$@....[
 1017d0 ffffffc7 4424084c 171000c7 44240400  ....D$.L....D$..
 1017e0 000000c7 04240100 0000e80a fbffffc7  .....$..........
 1017f0 442404fe 000000c7 04242100 0000e82b  D$.......$!....+
 101800 ffffffc9 c35589e5 83ec18c7 04248643  .....U.......$.C
 101810 1000e866 120000c9 c35589e5 83ec28c7  ...f.....U....(.
 101820 04249243 1000e8cb 110000e8 91010000  .$.C............
 101830 a3507010 00c745f4 00000000 eb17a150  .Pp...E........P
 101840 7010008b 55f4c1e2 0201d0c7 00020000  p...U...........
 101850 008345f4 01817df4 ff030000 7ee0e85e  ..E...}.....~..^
 101860 010000a3 04701000 c745f000 000000eb  .....p...E......
 101870 1ca10470 10008b55 f0c1e202 01d08b55  ...p...U.......U
 101880 f0c1e20c 83ca0389 108345f0 01817df0  ..........E...}.
 101890 ff030000 76dba150 7010008b 15047010  ....v..Pp.....p.
 1018a0 0083ca03 8910a150 7010000f 22d80f20  .......Pp...".. 
 1018b0 c08945ec 814dec00 0000808b 45ec0f22  ..E..M......E.."
 1018c0 c0c74424 08051810 00c74424 040e0000  ..D$......D$....
 1018d0 00c70424 00000000 e81cfaff ffc74424  ...$..........D$
 1018e0 04000000 00c70424 02000000 e8301100  .......$.....0..
 1018f0 00c70424 aa431000 e8f91000 00c74424  ...$.C........D$
 101900 04000000 00c70424 07000000 e8101100  .......$........
 101910 00c9c355 89e583ec 28c70424 b0431000  ...U....(..$.C..
 101920 e8d11000 008b4508 05ff0f00 002500f0  ......E......%..
 101930 ffff8945 f08b450c 80e4ef89 45ec8b45  ...E..E.....E..E
 101940 f08945f4 eb388b45 f48945e8 8b45ec8b  ..E..8.E..E..E..
 101950 55f001d0 3b45f476 0e8b45f4 8d900010  U...;E.v..E.....
 101960 00008b45 e889108b 45f03b45 f475088b  ...E....E.;E.u..
 101970 45f4a318 70100081 45f40010 00008b45  E...p...E......E
 101980 ec8b55f0 01d03b45 f477bbc7 44240400  ..U...;E.w..D$..
 101990 000000c7 04240200 0000e882 100000c7  .....$..........
 1019a0 0424c343 1000e84b 100000c7 44240400  .$.C...K....D$..
 1019b0 000000c7 04240700 0000e862 100000c9  .....$.....b....
 1019c0 c35589e5 83ec10a1 18701000 8945fca1  .U.......p...E..
 1019d0 18701000 8b00a318 7010008b 45fcc9c3  .p......p...E...
 1019e0 5589e583 ec108b45 088945fc 8b151870  U......E..E....p
 1019f0 10008b45 fc89108b 45fca318 701000c9  ...E....E...p...
 101a00 c35589e5 83ec18c7 44240400 000000c7  .U......D$......
 101a10 04240e00 0000e806 100000a1 18701000  .$...........p..
 101a20 8b10a118 70100089 54240889 442404c7  ....p...T$..D$..
 101a30 0424c843 1000e82b 0c0000c7 44240400  .$.C...+....D$..
 101a40 000000c7 04240700 0000e8d2 0f0000c9  .....$..........
 101a50 c35589e5 83ec10c6 45ff008b 45088945  .U......E...E..E
 101a60 f4c745f8 00000000 eb128b55 f88b45f4  ..E........U..E.
 101a70 01d00fb6 000045ff 8345f801 837df813  ......E..E...}..
 101a80 7ee80fb6 45ffc9c3 5589e583 ec10c645  ~...E...U......E
 101a90 ff00c745 f8000000 00eb128b 55f88b45  ...E........U..E
 101aa0 0801d00f b6000045 ff8345f8 018b55f8  .......E..E...U.
 101ab0 8b45088b 400439c2 72e1807d ff000f94  .E..@.9.r..}....
 101ac0 c0c9c355 89e583ec 18c70528 70100000  ...U.......(p...
 101ad0 c09f00eb 77a12870 1000c744 24080800  ....w.(p...D$...
 101ae0 0000c744 2404f443 10008904 24e89f12  ...D$..C....$...
 101af0 000085c0 7549c744 24040000 0000c704  ....uI.D$.......
 101b00 24020000 00e8170f 0000a128 70100089  $..........(p...
 101b10 442404c7 0424fd43 1000e847 0b0000c7  D$...$.C...G....
 101b20 44240400 000000c7 04240700 0000e8ee  D$.......$......
 101b30 0e0000c7 05447010 00010000 00eb1da1  .....Dp.........
 101b40 28701000 83c010a3 28701000 a1287010  (p......(p...(p.
 101b50 003d0000 0a000f86 79ffffff c9c35589  .=......y.....U.
 101b60 e583ec28 a1447010 0085c00f 85ad0000  ...(.Dp.........
 101b70 00c70528 70100000 000e00e9 8e000000  ...(p...........
 101b80 a1287010 00c74424 08080000 00c74424  .(p...D$......D$
 101b90 04f44310 00890424 e8f41100 0085c075  ..C....$.......u
 101ba0 60c74424 04000000 00c70424 02000000  `.D$.......$....
 101bb0 e86c0e00 00a12870 10008944 2404c704  .l....(p...D$...
 101bc0 24fd4310 00e89c0a 0000c744 24040000  $.C........D$...
 101bd0 0000c704 24070000 00e8430e 0000a128  ....$.....C....(
 101be0 70100089 45f48b45 f4890424 e860feff  p...E..E...$.`..
 101bf0 ff84c075 0cc70544 70100001 000000eb  ...u...Dp.......
 101c00 1da12870 100083c0 10a32870 1000a128  ..(p......(p...(
 101c10 7010003d 00000010 0f8662ff ffffc9c3  p..=......b.....
 101c20 5589e583 ec08e898 feffffe8 2effffff  U...............
 101c30 c9c35589 e583ec28 c7054470 10000000  ..U....(..Dp....
 101c40 0000c704 241c4410 00e8a80d 0000e8cd  ....$.D.........
 101c50 ffffffa1 44701000 85c07539 c7442404  ....Dp....u9.D$.
 101c60 00000000 c7042404 000000e8 b10d0000  ......$.........
 101c70 c704243c 441000e8 7a0d0000 c7442404  ..$<D...z....D$.
 101c80 00000000 c7042407 000000e8 910d0000  ......$.........
 101c90 e9d40100 00a12870 10008945 f48b45f4  ......(p...E..E.
 101ca0 0fb6400f 84c00f85 bd010000 c7042467  ..@...........$g
 101cb0 441000e8 3e0d0000 c7050070 10000100  D...>......p....
 101cc0 00008b45 f48d5009 8b45f489 54240889  ...E..P..E..T$..
 101cd0 442404c7 04248244 1000e887 090000c7  D$...$.D........
 101ce0 04249f44 1000e80b 0d00008b 45f48904  .$.D........E...
 101cf0 24e85bfd ffff84c0 0f853701 0000c744  $.[.......7....D
 101d00 24040000 0000c704 24020000 00e80f0d  $.......$.......
 101d10 0000c704 24b44410 00e8d80c 0000c744  ....$.D........D
 101d20 24040000 0000c704 24070000 00e8ef0c  $.......$.......
 101d30 00008b45 f4a31070 1000a110 7010008b  ...E...p....p...
 101d40 40108944 2404c704 24b84410 00e81409  @..D$...$.D.....
 101d50 0000a110 7010008b 4010a32c 701000a1  ....p...@..,p...
 101d60 2c701000 89442404 c70424d4 441000e8  ,p...D$...$.D...
 101d70 f2080000 c70424f8 441000e8 e6080000  ......$.D.......
 101d80 a12c7010 00890424 e8fbfcff ff84c074  .,p....$.......t
 101d90 6ec74424 04000000 00c70424 02000000  n.D$.......$....
 101da0 e87c0c00 00c70424 b4441000 e8450c00  .|.....$.D...E..
 101db0 00c74424 04000000 00c70424 07000000  ..D$.......$....
 101dc0 e85c0c00 00a12c70 10000fb6 40080fb6  .\....,p....@...
 101dd0 c0894424 04c70424 19451000 e8850800  ..D$...$.E......
 101de0 00c70424 2d451000 e8b20000 00894424  ...$-E........D$
 101df0 04c70424 32451000 e8690800 00eb6ac7  ...$2E...i....j.
 101e00 44240400 000000c7 04240400 0000e80e  D$.......$......
 101e10 0c0000c7 04244045 1000e8d7 0b0000c7  .....$@E........
 101e20 44240400 000000c7 04240700 0000e8ee  D$.......$......
 101e30 0b0000eb 34c74424 04000000 00c70424  ....4.D$.......$
 101e40 04000000 e8d80b00 00c70424 40451000  ...........$@E..
 101e50 e8a10b00 00c74424 04000000 00c70424  ......D$.......$
 101e60 07000000 e8b80b00 00c74424 04000000  ..........D$....
 101e70 00c70424 02000000 e8a40b00 00c70424  ...$...........$
 101e80 5f451000 e86d0b00 00c74424 04000000  _E...m....D$....
 101e90 00c70424 07000000 e8840b00 00c9c355  ...$...........U
 101ea0 89e583ec 28a12c70 10008b40 0483e824  ....(.,p...@...$
 101eb0 c1e80289 45f0c745 f4000000 00eb39a1  ....E..E......9.
 101ec0 2c701000 8b55f483 c2088b44 90048945  ,p...U.....D...E
 101ed0 ec8b45ec c7442408 04000000 8b550889  ..E..D$......U..
 101ee0 54240489 0424e8a1 13000085 c075058b  T$...$.......u..
 101ef0 45eceb11 8345f401 8b45f43b 45f07cbf  E....E...E.;E.|.
 101f00 b8000000 00c9c355 89e5a12c 7010005d  .......U...,p..]
 101f10 c35589e5 83ec088b 55088b45 0c668955  .U......U..E.f.U
 101f20 fc8845f8 0fb645f8 0fb755fc eec9c355  ..E...E...U....U
 101f30 89e583ec 148b4508 668945ec 0fb745ec  ......E.f.E...E.
 101f40 89c2ec88 45ff0fb6 45ffc9c3 5589e583  ....E...E...U...
 101f50 ec28c605 0d701000 00c70424 74451000  .(...p.....$tE..
 101f60 e83affff ff8945f4 8b45f40f b640083c  .:....E..E...@.<
 101f70 01765a8b 45f40fb7 406e0fb7 c083e002  .vZ.E...@n......
 101f80 85c07413 c7042479 451000e8 660a0000  ..t...$yE...f...
 101f90 e8730000 00eb6fc7 44240400 000000c7  .s....o.D$......
 101fa0 04240400 0000e876 0a0000c7 04249445  .$.....v.....$.E
 101fb0 1000e83f 0a0000c7 44240400 000000c7  ...?....D$......
 101fc0 04240700 0000e856 0a0000eb 39c74424  .$.....V....9.D$
 101fd0 04000000 00c70424 06000000 e8400a00  .......$.....@..
 101fe0 00c70424 d8451000 e8090a00 00c74424  ...$.E........D$
 101ff0 04000000 00c70424 07000000 e8200a00  .......$..... ..
 102000 00e80200 0000c9c3 5589e583 ec28c704  ........U....(..
 102010 24244610 00e8dc09 0000c744 2404ad00  $$F........D$...
 102020 0000c704 24640000 00e8e3fe ffffe8dc  ....$d..........
 102030 040000c7 442404a7 000000c7 04246400  ....D$.......$d.
 102040 0000e8ca feffffc7 04246000 0000e8dc  .........$`.....
 102050 feffff88 45f6c744 24042000 0000c704  ....E..D$. .....
 102060 24640000 00e8a7fe ffffe8a0 040000c7  $d..............
 102070 04246000 0000e8b4 feffff88 45f78065  .$`.........E..e
 102080 f7fe8065 f7fd8065 f7bf0fb6 45f783e0  ...e...e....E...
 102090 2085c074 15c6053a 70100001 c7042444   ..t...:p.....$D
 1020a0 461000e8 4e090000 eb13c605 3a701000  F...N.......:p..
 1020b0 00c70424 64461000 e8390900 00c74424  ...$dF...9....D$
 1020c0 04600000 00c70424 64000000 e840feff  .`.....$d....@..
 1020d0 ff0fb645 f7894424 04c70424 60000000  ...E..D$...$`...
 1020e0 e82cfeff ffc74424 04aa0000 00c70424  .,....D$.......$
 1020f0 64000000 e818feff ffe81104 0000c704  d...............
 102100 24600000 00e825fe ffff8845 f5807df5  $`....%....E..}.
 102110 550f85a1 030000c7 44240400 000000c7  U.......D$......
 102120 04240200 0000e8f6 080000c7 04248546  .$...........$.F
 102130 1000e8bf 080000c7 44240400 000000c7  ........D$......
 102140 04240700 0000e8d6 080000c7 0424a046  .$...........$.F
 102150 1000e89f 080000c7 442404ab 000000c7  ........D$......
 102160 04246400 0000e8a6 fdffffe8 9f030000  .$d.............
 102170 c7042460 000000e8 b3fdffff 8845f580  ..$`.........E..
 102180 7df50075 3dc74424 04000000 00c70424  }..u=.D$.......$
 102190 02000000 e8880800 00c70424 bf461000  ...........$.F..
 1021a0 e8510800 00c74424 04000000 00c70424  .Q....D$.......$
 1021b0 07000000 e8680800 00c60530 70100001  .....h.....0p...
 1021c0 eb3bc744 24040000 0000c704 24040000  .;.D$.......$...
 1021d0 00e84b08 0000c704 24cd4610 00e81408  ..K.....$.F.....
 1021e0 0000c744 24040000 0000c704 24070000  ...D$.......$...
 1021f0 00e82b08 0000c605 30701000 000fb605  ..+.....0p......
 102200 3a701000 84c00f84 a8000000 c7442404  :p...........D$.
 102210 a9000000 c7042464 000000e8 f1fcffff  ......$d........
 102220 e8ea0200 00c70424 60000000 e8fefcff  .......$`.......
 102230 ff8845f5 807df500 753dc744 24040000  ..E..}..u=.D$...
 102240 0000c704 24020000 00e8d307 0000c704  ....$...........
 102250 24db4610 00e89c07 0000c744 24040000  $.F........D$...
 102260 0000c704 24070000 00e8b307 0000c605  ....$...........
 102270 40701000 01eb50c7 44240400 000000c7  @p....P.D$......
 102280 04240400 0000e896 070000c7 0424e946  .$...........$.F
 102290 1000e85f 070000c7 44240400 000000c7  ..._....D$......
 1022a0 04240700 0000e876 070000c6 05407010  .$.....v.....@p.
 1022b0 0000eb13 c70424f7 461000e8 36070000  ......$.F...6...
 1022c0 c6054070 100000c7 04240947 1000e823  ..@p.....$.G...#
 1022d0 0700000f b6053070 100084c0 7420c744  ......0p....t .D
 1022e0 2404ae00 0000c704 24640000 00e81ffc  $.......$d......
 1022f0 ffffc704 24214710 00e8f806 00000fb6  ....$!G.........
 102300 05407010 0084c074 20c74424 04a80000  .@p....t .D$....
 102310 00c70424 64000000 e8f4fbff ffc70424  ...$d..........$
 102320 3c471000 e8cd0600 00c74424 04200000  <G........D$. ..
 102330 00c70424 64000000 e8d4fbff ffe8cd01  ...$d...........
 102340 0000c704 24600000 00e8e1fb ffff8845  ....$`.........E
 102350 f7804df7 010fb605 40701000 84c07404  ..M.....@p....t.
 102360 804df702 c7442404 60000000 c7042464  .M...D$.`.....$d
 102370 000000e8 99fbffff 0fb645f7 89442404  ..........E..D$.
 102380 c7042460 000000e8 85fbffff e89d0100  ..$`............
 102390 00c74424 04ff0000 00c70424 60000000  ..D$.......$`...
 1023a0 e86cfbff ffe86501 0000c704 24600000  .l....e.....$`..
 1023b0 00e879fb ffff8845 f5807df5 fa7534c7  ..y....E..}..u4.
 1023c0 44240400 000000c7 04240200 0000e84e  D$.......$.....N
 1023d0 060000c7 04245747 1000e817 060000c7  .....$WG........
 1023e0 44240400 000000c7 04240700 0000e82e  D$.......$......
 1023f0 0600000f b6054070 100084c0 0f840b01  ......@p........
 102400 0000c744 2404d400 0000c704 24640000  ...D$.......$d..
 102410 00e8fbfa ffffe813 010000c7 442404ff  ............D$..
 102420 000000c7 04246000 0000e8e2 faffffe8  .....$`.........
 102430 db000000 c7042460 000000e8 effaffff  ......$`........
 102440 8845f580 7df5aa75 39c74424 04000000  .E..}..u9.D$....
 102450 00c70424 02000000 e8c40500 00c70424  ...$...........$
 102460 70471000 e88d0500 00c74424 04000000  pG........D$....
 102470 00c70424 07000000 e8a40500 00e98b00  ...$............
 102480 0000c744 24040000 0000c704 24040000  ...D$.......$...
 102490 00e88b05 0000c704 24894710 00e85405  ........$.G...T.
 1024a0 0000c744 24040000 0000c704 24070000  ...D$.......$...
 1024b0 00e86b05 0000eb55 c7442404 00000000  ..k....U.D$.....
 1024c0 c7042404 000000e8 55050000 c70424a0  ..$.....U.....$.
 1024d0 471000e8 1e050000 c7442404 00000000  G........D$.....
 1024e0 c7042407 000000e8 35050000 0fb6050d  ..$.....5.......
 1024f0 70100083 f00184c0 7407e809 fbffffeb  p.......t.......
 102500 0cc70424 d4471000 e8700500 00c9c355  ...$.G...p.....U
 102510 89e583ec 0490c704 24640000 00e80dfa  ........$d......
 102520 ffff0fb6 c083e002 85c075ea c9c35589  ..........u...U.
 102530 e583ec04 90c70424 64000000 e8eef9ff  .......$d.......
 102540 ff0fb6c0 83e00485 c074eac9 c35589e5  .........t...U..
 102550 83ec088b 55088b45 0c668955 fc668945  ....U..E.f.U.f.E
 102560 f80fb745 f80fb755 fc66efc9 c35589e5  ...E...U.f...U..
 102570 83ec18c7 05247010 00020000 00c7051c  .....$p.........
 102580 70100000 800b00c7 44240400 000000c7  p.......D$......
 102590 04240700 0000e886 0400008b 4508a358  .$..........E..X
 1025a0 7010008b 450ca354 701000c7 44240400  p...E..Tp...D$..
 1025b0 000000c7 04240000 0000e8a9 040000e8  .....$..........
 1025c0 2a000000 c7442404 0a200000 c70424d4  *....D$.. ....$.
 1025d0 030000e8 75ffffff c7442404 0b000000  ....u....D$.....
 1025e0 c70424d4 030000e8 61ffffff c9c35589  ..$.....a.....U.
 1025f0 e55383ec 24c745f4 00000000 eb58c745  .S..$.E......X.E
 102600 f0000000 00eb41a1 58701000 0faf45f4  ......A.Xp....E.
 102610 89c28b45 f001d089 45eca11c 7010008b  ...E....E...p...
 102620 55ec01d2 8d1c100f b6053970 10000fb6  U.........9p....
 102630 c0894424 04c70424 20000000 e8f70300  ..D$...$ .......
 102640 00668903 8345f001 a1587010 003945f0  .f...E...Xp..9E.
 102650 72b58345 f401a154 70100039 45f4729e  r..E...Tp..9E.r.
 102660 83c4245b 5dc35589 e583ec28 8d450c89  ..$[].U....(.E..
 102670 45f48b45 f4894424 048b4508 890424e8  E..E..D$..E...$.
 102680 02000000 c9c35589 e583ec48 e93b0100  ......U....H.;..
 102690 008b4508 0fb6003c 250f8518 01000083  ..E....<%.......
 1026a0 4508018b 45080fb6 000fbec0 83e86283  E...E.........b.
 1026b0 f8160f87 ef000000 8b048508 481000ff  ............H...
 1026c0 e08b450c 8d500489 550c8b00 0fbec089  ..E..P..U.......
 1026d0 0424e805 010000e9 d9000000 8b450c8d  .$...........E..
 1026e0 50048955 0c8b0089 0424e807 030000e9  P..U.....$......
 1026f0 c1000000 8b450c8d 50048955 0c8b00c7  .....E..P..U....
 102700 44240802 0000008d 55d78954 24048904  D$......U..T$...
 102710 24e8f504 00008904 24e8d802 0000e992  $.......$.......
 102720 0000008b 450c8d50 0489550c 8b00c744  ....E..P..U....D
 102730 24080a00 00008d55 d7895424 04890424  $......U..T$...$
 102740 e8c60400 00890424 e8a90200 00eb668b  .......$......f.
 102750 450c8d50 0489550c 8b00c744 24080a00  E..P..U....D$...
 102760 00008d55 d7895424 04890424 e8950500  ...U..T$...$....
 102770 00890424 e87d0200 00eb3a8b 450c8d50  ...$.}....:.E..P
 102780 0489550c 8b00c744 24081000 00008d55  ..U....D$......U
 102790 d7895424 04890424 e86e0400 00890424  ..T$...$.n.....$
 1027a0 e8510200 00eb0ec7 04243f00 0000e829  .Q.......$?....)
 1027b0 000000eb 13eb118b 45080fb6 000fbec0  ........E.......
 1027c0 890424e8 14000000 83450801 8b45080f  ..$......E...E..
 1027d0 b60084c0 0f85b7fe ffffc9c3 5589e553  ............U..S
 1027e0 83ec248b 45088845 e40fbe45 e483f809  ..$.E..E...E....
 1027f0 0f849700 000083f8 097f0a83 f808744b  ..............tK
 102800 e9a90000 0083f80a 740a83f8 0d7422e9  ........t....t".
 102810 9a000000 a15c7010 0083c001 89442404  .....\p......D$.
 102820 c7042400 000000e8 3c020000 e9da0000  ..$.....<.......
 102830 00a15c70 10008944 2404c704 24000000  ..\p...D$...$...
 102840 00e82202 0000e9c0 000000a1 5c701000  ..".........\p..
 102850 8b150870 100083ea 01894424 04891424  ...p......D$...$
 102860 e8030200 00c70424 20000000 e86bffff  .......$ ....k..
 102870 ffa15c70 10008b15 08701000 83ea0189  ..\p.....p......
 102880 44240489 1424e8dd 010000eb 7ea15c70  D$...$......~.\p
 102890 10008b0d 08701000 8b152470 100001ca  .....p....$p....
 1028a0 89442404 891424e8 bc010000 eb5d8b15  .D$...$......]..
 1028b0 5c701000 a1587010 000fafd0 a1087010  \p...Xp.......p.
 1028c0 0001d089 45f0a11c 7010008b 55f001d2  ....E...p...U...
 1028d0 8d1c100f b6053970 10000fb6 d00fbe45  ......9p.......E
 1028e0 e4895424 04890424 e84b0100 00668903  ..T$...$.K...f..
 1028f0 a15c7010 008b1508 70100083 c2018944  .\p.....p......D
 102900 24048914 24e85e01 000090a1 58701000  $...$.^.....Xp..
 102910 8d50ffa1 08701000 39c27318 a15c7010  .P...p..9.s..\p.
 102920 0083c001 89442404 c7042400 000000e8  .....D$...$.....
 102930 34010000 a1547010 008d50ff a15c7010  4....Tp...P..\p.
 102940 0039c20f 83a70000 00a15470 10008d90  .9........Tp....
 102950 ffffff7f a1587010 000fafc2 8d0c00a1  .....Xp.........
 102960 1c701000 8b155870 100001d2 01c2a11c  .p....Xp........
 102970 70100089 4c240889 54240489 0424e869  p...L$..T$...$.i
 102980 040000c7 45f40000 0000eb42 a11c7010  ....E......B..p.
 102990 008b155c 7010008d 4aff8b15 58701000  ...\p...J...Xp..
 1029a0 0fafca8b 55f401ca 01d28d1c 100fb605  ....U...........
 1029b0 39701000 0fb6c089 442404c7 04242000  9p......D$...$ .
 1029c0 0000e871 00000066 89038345 f401a158  ...q...f...E...X
 1029d0 70100039 45f472b4 a15c7010 0083e801  p..9E.r..\p.....
 1029e0 89442404 c7042400 000000e8 78000000  .D$...$.....x...
 1029f0 83c4245b 5dc35589 e583ec18 eb178b45  ..$[].U........E
 102a00 088d5001 8955080f b6000fbe c0890424  ..P..U.........$
 102a10 e8c7fdff ff8b4508 0fb60084 c075dfc9  ......E......u..
 102a20 c35589e5 8b450cc1 e00489c2 8b450809  .U...E.......E..
 102a30 d0a23970 10005dc3 5589e583 ec188b55  ..9p..].U......U
 102a40 088b450c 8855ec88 45e8660f be45ec66  ..E..U..E.f..E.f
 102a50 8945fe0f b645e866 8945fc0f b745fcc1  .E...E.f.E...E..
 102a60 e008660b 45fec9c3 5589e58b 4508a308  ..f.E...U...E...
 102a70 7010008b 450ca35c 7010005d c35589e5  p...E..\p..].U..
 102a80 565383ec 10e864fb ffffc744 24040f00  VS....d....D$...
 102a90 0000c704 24080000 00e883ff ffffe84b  ....$..........K
 102aa0 fbffffa1 54701000 d1e88d58 faa15870  ....Tp.....X..Xp
 102ab0 1000d1e8 89c6c704 24644810 00e84d07  ........$dH...M.
 102ac0 0000d1e8 29c689f0 895c2404 890424e8  ....)....\$...$.
 102ad0 94ffffff c7042464 481000e8 16ffffff  ......$dH.......
 102ae0 a1547010 00d1e88d 58fba158 701000d1  .Tp.....X..Xp...
 102af0 e889c68b 45088904 24e81107 0000d1e8  ....E...$.......
 102b00 29c689f0 83e80389 5c240489 0424e855  ).......\$...$.U
 102b10 ffffffc7 04249048 1000e8d7 feffffa1  .....$.H........
 102b20 54701000 d1e88d58 fba15870 1000d1e8  Tp.....X..Xp....
 102b30 89c68b45 08890424 e8d20600 00d1e829  ...E...$.......)
 102b40 c689f083 c004895c 24048904 24e816ff  .......\$...$...
 102b50 ffff8b45 08890424 e899feff ffa15c70  ...E...$......\p
 102b60 10008d58 02a15870 1000d1e8 89c6c704  ...X..Xp........
 102b70 24984810 00e89506 0000d1e8 29c689f0  $.H.........)...
 102b80 895c2404 890424e8 dcfeffff e8dedbff  .\$...$.........
 102b90 ffa15470 10008d58 fda15870 1000d1e8  ..Tp...X..Xp....
 102ba0 89c6c704 24ac4810 00e86106 0000d1e8  ....$.H...a.....
 102bb0 29c689f0 895c2404 890424e8 a8feffff  )....\$...$.....
 102bc0 c70424ac 481000e8 2afeffff a1547010  ..$.H...*....Tp.
 102bd0 008d58fe a1587010 00d1e889 c6c70424  ..X..Xp........$
 102be0 d0481000 e8260600 00d1e829 c689f089  .H...&.....)....
 102bf0 5c240489 0424e86d feffffc7 0424d048  \$...$.m.....$.H
 102c00 1000e8ef fdfffffa f4ebfd55 89e55383  ...........U..S.
 102c10 ec34837d 1002741c 837d1008 7416837d  .4.}..t..}..t..}
 102c20 100a7410 837d1010 740ab800 000000e9  ..t..}..t.......
 102c30 cc000000 8b450c89 45e8837d 0800751b  .....E..E..}..u.
 102c40 c7442404 f6481000 8b450c89 0424e89f  .D$..H...E...$..
 102c50 0500008b 450ce9a5 000000eb 498b4d10  ....E.......I.M.
 102c60 8b4508ba 00000000 f7f189d0 8945e48b  .E...........E..
 102c70 5d108b45 08ba0000 0000f7f3 89450883  ]..E.........E..
 102c80 7de4097e 0b8b45e4 83c05788 45f7eb09  }..~..E...W.E...
 102c90 8b45e483 c0308845 f78b450c 0fb655f7  .E...0.E..E...U.
 102ca0 88108345 0c01837d 080075b1 8b450cc6  ...E...}..u..E..
 102cb0 00008b45 e88945f0 8b45e889 0424e84c  ...E..E..E...$.L
 102cc0 0500008d 50ff8b45 e801d089 45eceb25  ....P..E....E..%
 102cd0 8b45f00f b6008845 e38b45ec 0fb6108b  .E.....E..E.....
 102ce0 45f08810 8b45ec0f b655e388 108345f0  E....E...U....E.
 102cf0 01836dec 018b45f0 3b45ec72 d38b45e8  ..m...E.;E.r..E.
 102d00 83c4345b 5dc35589 e583ec28 837d1002  ..4[].U....(.}..
 102d10 7419837d 10087413 837d100a 740d837d  t..}..t..}..t..}
 102d20 10107407 b8000000 00eb648b 450c8945  ..t.......d.E..E
 102d30 f0837d08 007518c7 442404f6 4810008b  ..}..u..D$..H...
 102d40 450c8904 24e8a804 00008b45 0ceb40c6  E...$......E..@.
 102d50 45f70083 7d080079 15c645f7 018b450c  E...}..y..E...E.
 102d60 c6002d83 450c0183 45f001f7 5d088b45  ..-.E...E...]..E
 102d70 088b5510 89542408 8b550c89 54240489  ..U..T$..U..T$..
 102d80 0424e884 feffff0f b655f7f7 da01d0c9  .$.......U......
 102d90 c35589e5 83ec108b 45088945 fc8b450c  .U......E..E..E.
 102da0 8945f8eb 0c836d10 018345fc 018345f8  .E....m...E...E.
 102db0 01837d10 0074108b 45fc0fb6 108b45f8  ..}..t..E.....E.
 102dc0 0fb60038 c274de83 7d100074 188b45fc  ...8.t..}..t..E.
 102dd0 0fb6000f b6d08b45 f80fb600 0fb6c029  .......E.......)
 102de0 c289d0eb 05b80000 0000c9c3 5589e583  ............U...
 102df0 ec288b45 088945f4 8b450c89 45f08b45  .(.E..E..E..E..E
 102e00 f43b45f0 75088b45 f4e95c01 00008b45  .;E.u..E..\....E
 102e10 108b55f0 01d03b45 f4760d8b 45108b55  ..U...;E.v..E..U
 102e20 f401d03b 45f0771e 8b451089 4424088b  ...;E.w..E..D$..
 102e30 45f08944 24048b45 f4890424 e8c10400  E..D$..E...$....
 102e40 00e92401 00008b45 f43b45f0 0f838d00  ..$....E.;E.....
 102e50 00008b55 f08b45f4 31d083e0 0385c075  ...U..E.1......u
 102e60 56eb2c8b 45108d50 ff895510 85c07508  V.,.E..P..U...u.
 102e70 8b4508e9 f2000000 8b45f48d 50018955  .E.......E..P..U
 102e80 f48b55f0 8d4a0189 4df00fb6 1288108b  ..U..J..M.......
 102e90 45f483e0 0385c075 caeb168b 45f08b10  E......u....E...
 102ea0 8b45f489 10836d10 048345f4 048345f0  .E....m...E...E.
 102eb0 04837d10 0377e4eb 1b8b45f4 8d500189  ..}..w....E..P..
 102ec0 55f48b55 f08d4a01 894df00f b6128810  U..U..J..M......
 102ed0 836d1001 837d1000 75dfe988 0000008b  .m...}..u.......
 102ee0 55f08b45 f431d083 e00385c0 7558eb27  U..E.1......uX.'
 102ef0 8b45108d 50ff8955 1085c075 058b4508  .E..P..U...u..E.
 102f00 eb688b45 108b55f4 01c28b45 108b4df0  .h.E..U....E..M.
 102f10 01c80fb6 0088028b 45108b55 f401d083  ........E..U....
 102f20 e00385c0 75caeb18 836d1004 8b45108b  ....u....m...E..
 102f30 55f401c2 8b45108b 4df001c8 8b008902  U....E..M.......
 102f40 837d1003 77e2eb19 836d1001 8b45108b  .}..w....m...E..
 102f50 55f401c2 8b45108b 4df001c8 0fb60088  U....E..M.......
 102f60 02837d10 0075e18b 4508c9c3 5589e556  ..}..u..E...U..V
 102f70 5383ec20 8b450889 45f4837d 10007508  S.. .E..E..}..u.
 102f80 8b4508e9 24020000 8b45108d 50ff8b45  .E..$....E..P..E
 102f90 f401d08b 550c8810 0fb6108b 45f48810  ....U.......E...
 102fa0 837d1002 77088b45 08e9fe01 00008b45  .}..w..E.......E
 102fb0 f48d4801 8b45108d 50fe8b45 f401d08b  ..H..E..P..E....
 102fc0 550c8810 0fb60088 018b45f4 8d48028b  U.........E..H..
 102fd0 45108d50 fd8b45f4 01d08b55 0c88100f  E..P..E....U....
 102fe0 b6008801 837d1006 77088b45 08e9ba01  .....}..w..E....
 102ff0 00008b45 f48d4803 8b45108d 50fc8b45  ...E..H..E..P..E
 103000 f401d08b 550c8810 0fb60088 01837d10  ....U.........}.
 103010 0877088b 4508e991 0100008b 45f4f7d8  .w..E.......E...
 103020 83e00389 45f08b45 f00145f4 8b45f029  ....E..E..E..E.)
 103030 45108365 10fc8b45 0c0fb6c0 69c00101  E..e...E....i...
 103040 01018945 ec8b45f4 8b55ec89 108b4510  ...E..E..U....E.
 103050 8d50fc8b 45f401c2 8b45ec89 02837d10  .P..E....E....}.
 103060 0877088b 4508e941 0100008b 45f48d50  .w..E..A....E..P
 103070 048b45ec 89028b45 f48d5008 8b45ec89  ..E....E..P..E..
 103080 028b4510 8d50f48b 45f401c2 8b45ec89  ..E..P..E....E..
 103090 028b4510 8d50f88b 45f401c2 8b45ec89  ..E..P..E....E..
 1030a0 02837d10 1877088b 4508e9fd 0000008b  ..}..w..E.......
 1030b0 45f48d50 0c8b45ec 89028b45 f48d5010  E..P..E....E..P.
 1030c0 8b45ec89 028b45f4 8d50148b 45ec8902  .E....E..P..E...
 1030d0 8b45f48d 50188b45 ec89028b 45108d50  .E..P..E....E..P
 1030e0 e48b45f4 01c28b45 ec89028b 45108d50  ..E....E....E..P
 1030f0 e88b45f4 01c28b45 ec89028b 45108d50  ..E....E....E..P
 103100 ec8b45f4 01c28b45 ec89028b 45108d50  ..E....E....E..P
 103110 f08b45f4 01c28b45 ec89028b 45f483e0  ..E....E....E...
 103120 0483c018 8945f08b 45f00145 f48b45f0  .....E..E..E..E.
 103130 2945108b 4decbb00 0000008b 45ecba00  )E..M.......E...
 103140 00000089 c2b80000 000089ce 09c68975  ...............u
 103150 e009d389 d88945e4 eb498b4d f48b45e0  ......E..I.M..E.
 103160 8b55e489 01895104 8b45f48d 48088b45  .U....Q..E..H..E
 103170 e08b55e4 89018951 048b45f4 8d48108b  ..U....Q..E..H..
 103180 45e08b55 e4890189 51048b45 f48d4818  E..U....Q..E..H.
 103190 8b45e08b 55e48901 89510483 6d102083  .E..U....Q..m. .
 1031a0 45f42083 7d101f77 b18b4508 83c4205b  E. .}..w..E... [
 1031b0 5e5dc355 89e5eb08 83450801 83450c01  ^].U.....E...E..
 1031c0 8b45080f b6108b45 0c0fb600 38c2750a  .E.....E....8.u.
 1031d0 8b45080f b60084c0 75de8b45 080fb600  .E......u..E....
 1031e0 0fb6d08b 450c0fb6 000fb6c0 29c289d0  ....E.......)...
 1031f0 5dc35589 e583ec18 8b450c89 4424048b  ].U......E..D$..
 103200 45088904 24e8f407 00008b45 08c9c355  E...$......E...U
 103210 89e583ec 108b4508 8945f8eb 1a8b4508  ......E..E....E.
 103220 0fb60084 c0750c8b 55088b45 f829c289  .....u..U..E.)..
 103230 d0eb5783 4508018b 450883e0 0385c075  ..W.E...E......u
 103240 dc8b4508 8945fceb 048345fc 048b45fc  ..E..E....E...E.
 103250 8b008d90 fffefefe 8b45fc8b 00f7d021  .........E.....!
 103260 d0258080 808085c0 74df8b45 fc894508  .%......t..E..E.
 103270 eb048345 08018b45 080fb600 84c075f2  ...E...E......u.
 103280 8b55088b 45f829c2 89d0c9c3 5589e583  .U..E.).....U...
 103290 ec108b45 088945fc 8b450c89 45f88b45  ...E..E..E..E..E
 1032a0 108d50ff 89551085 c07507b8 00000000  ..P..U...u......
 1032b0 eb4eeb0c 8345fc01 8345f801 836d1001  .N...E...E...m..
 1032c0 8b45fc0f b60084c0 74208b45 f80fb600  .E......t .E....
 1032d0 84c07416 837d1000 74108b45 fc0fb610  ..t..}..t..E....
 1032e0 8b45f80f b60038c2 74ca8b45 fc0fb600  .E....8.t..E....
 1032f0 0fb6d08b 45f80fb6 000fb6c0 29c289d0  ....E.......)...
 103300 c9c35589 e583ec10 8b450889 45fc8b45  ..U......E..E..E
 103310 0c8945f8 eb1b8b45 fc8d5001 8955fc8b  ..E....E..P..U..
 103320 55f88d4a 01894df8 0fb61288 10836d10  U..J..M.......m.
 103330 018b45f8 83e00385 c0740683 7d100075  ..E......t..}..u
 103340 d58b45fc 83e00385 c00f85e3 000000eb  ..E.............
 103350 408b45f8 8b108b45 fc89108b 45fc8d50  @.E....E....E..P
 103360 048b45f8 8b400489 028b45fc 8d50088b  ..E..@....E..P..
 103370 45f88b40 0889028b 45fc8d50 0c8b45f8  E..@....E..P..E.
 103380 8b400c89 028345f8 108345fc 10836d10  .@....E...E...m.
 103390 10837d10 0f77ba8b 451083e0 0885c074  ..}..w..E......t
 1033a0 208b45f8 8b108b45 fc89108b 45fc8d50   .E....E....E..P
 1033b0 048b45f8 8b400489 028345fc 088345f8  ..E..@....E...E.
 1033c0 088b4510 83e00485 c074128b 45f88b10  ..E......t..E...
 1033d0 8b45fc89 108345fc 048345f8 048b4510  .E....E...E...E.
 1033e0 83e00285 c0742e8b 45fc8d50 018955fc  .....t..E..P..U.
 1033f0 8b55f88d 4a01894d f80fb612 88108b45  .U..J..M.......E
 103400 fc8d5001 8955fc8b 55f88d4a 01894df8  ..P..U..U..J..M.
 103410 0fb61288 108b4510 83e00185 c0740b8b  ......E......t..
 103420 45f80fb6 108b45fc 88108b45 08e9ca05  E.....E....E....
 103430 0000837d 101f0f86 c6020000 8b45fc83  ...}.........E..
 103440 e00383f8 020f840c 01000083 f8030f84  ................
 103450 e6010000 83f8010f 85a50200 008b45f8  ..............E.
 103460 8b008945 f48b45fc 8d500189 55fc8b55  ...E..E..P..U..U
 103470 f88d4a01 894df80f b6128810 8b45fc8d  ..J..M.......E..
 103480 50018955 fc8b55f8 8d4a0189 4df80fb6  P..U..U..J..M...
 103490 1288108b 45fc8d50 018955fc 8b55f88d  ....E..P..U..U..
 1034a0 4a01894d f80fb612 8810836d 1003e995  J..M.......m....
 1034b0 0000008b 45f883c0 018b0089 45f08b45  ....E.......E..E
 1034c0 f4c1e818 89c28b45 f0c1e008 09c28b45  .......E.......E
 1034d0 fc89108b 45f883c0 058b0089 45f48b45  ....E.......E..E
 1034e0 fc83c004 8b55f089 d1c1e918 8b55f4c1  .....U.......U..
 1034f0 e20809ca 89108b45 f883c009 8b008945  .......E.......E
 103500 f08b45fc 83c0088b 55f489d1 c1e9188b  ..E.....U.......
 103510 55f0c1e2 0809ca89 108b45f8 83c00d8b  U.........E.....
 103520 008945f4 8b45fc83 c00c8b55 f089d1c1  ..E..E.....U....
 103530 e9188b55 f4c1e208 09ca8910 8345f810  ...U.........E..
 103540 8345fc10 836d1010 837d1010 0f8761ff  .E...m...}....a.
 103550 ffffe9ab 0100008b 45f88b00 8945f48b  ........E....E..
 103560 45fc8d50 018955fc 8b55f88d 4a01894d  E..P..U..U..J..M
 103570 f80fb612 88108b45 fc8d5001 8955fc8b  .......E..P..U..
 103580 55f88d4a 01894df8 0fb61288 10836d10  U..J..M.......m.
 103590 02e99500 00008b45 f883c002 8b008945  .......E.......E
 1035a0 f08b45f4 c1e81089 c28b45f0 c1e01009  ..E.......E.....
 1035b0 c28b45fc 89108b45 f883c006 8b008945  ..E....E.......E
 1035c0 f48b45fc 83c0048b 55f089d1 c1e9108b  ..E.....U.......
 1035d0 55f4c1e2 1009ca89 108b45f8 83c00a8b  U.........E.....
 1035e0 008945f0 8b45fc83 c0088b55 f489d1c1  ..E..E.....U....
 1035f0 e9108b55 f0c1e210 09ca8910 8b45f883  ...U.........E..
 103600 c00e8b00 8945f48b 45fc83c0 0c8b55f0  .....E..E.....U.
 103610 89d1c1e9 108b55f4 c1e21009 ca891083  ......U.........
 103620 45f81083 45fc1083 6d101083 7d10110f  E...E...m...}...
 103630 8761ffff ffe9c800 00008b45 f88b0089  .a.........E....
 103640 45f48b45 fc8d5001 8955fc8b 55f88d4a  E..E..P..U..U..J
 103650 01894df8 0fb61288 10836d10 01e99500  ..M.......m.....
 103660 00008b45 f883c003 8b008945 f08b45f4  ...E.......E..E.
 103670 c1e80889 c28b45f0 c1e01809 c28b45fc  ......E.......E.
 103680 89108b45 f883c007 8b008945 f48b45fc  ...E.......E..E.
 103690 83c0048b 55f089d1 c1e9088b 55f4c1e2  ....U.......U...
 1036a0 1809ca89 108b45f8 83c00b8b 008945f0  ......E.......E.
 1036b0 8b45fc83 c0088b55 f489d1c1 e9088b55  .E.....U.......U
 1036c0 f0c1e218 09ca8910 8b45f883 c00f8b00  .........E......
 1036d0 8945f48b 45fc83c0 0c8b55f0 89d1c1e9  .E..E.....U.....
 1036e0 088b55f4 c1e21809 ca891083 45f81083  ..U.........E...
 1036f0 45fc1083 6d101083 7d10120f 8761ffff  E...m...}....a..
 103700 ff908b45 1083e010 85c00f84 70010000  ...E........p...
 103710 8b45fc8d 50018955 fc8b55f8 8d4a0189  .E..P..U..U..J..
 103720 4df80fb6 1288108b 45fc8d50 018955fc  M.......E..P..U.
 103730 8b55f88d 4a01894d f80fb612 88108b45  .U..J..M.......E
 103740 fc8d5001 8955fc8b 55f88d4a 01894df8  ..P..U..U..J..M.
 103750 0fb61288 108b45fc 8d500189 55fc8b55  ......E..P..U..U
 103760 f88d4a01 894df80f b6128810 8b45fc8d  ..J..M.......E..
 103770 50018955 fc8b55f8 8d4a0189 4df80fb6  P..U..U..J..M...
 103780 1288108b 45fc8d50 018955fc 8b55f88d  ....E..P..U..U..
 103790 4a01894d f80fb612 88108b45 fc8d5001  J..M.......E..P.
 1037a0 8955fc8b 55f88d4a 01894df8 0fb61288  .U..U..J..M.....
 1037b0 108b45fc 8d500189 55fc8b55 f88d4a01  ..E..P..U..U..J.
 1037c0 894df80f b6128810 8b45fc8d 50018955  .M.......E..P..U
 1037d0 fc8b55f8 8d4a0189 4df80fb6 1288108b  ..U..J..M.......
 1037e0 45fc8d50 018955fc 8b55f88d 4a01894d  E..P..U..U..J..M
 1037f0 f80fb612 88108b45 fc8d5001 8955fc8b  .......E..P..U..
 103800 55f88d4a 01894df8 0fb61288 108b45fc  U..J..M.......E.
 103810 8d500189 55fc8b55 f88d4a01 894df80f  .P..U..U..J..M..
 103820 b6128810 8b45fc8d 50018955 fc8b55f8  .....E..P..U..U.
 103830 8d4a0189 4df80fb6 1288108b 45fc8d50  .J..M.......E..P
 103840 018955fc 8b55f88d 4a01894d f80fb612  ..U..U..J..M....
 103850 88108b45 fc8d5001 8955fc8b 55f88d4a  ...E..P..U..U..J
 103860 01894df8 0fb61288 108b45fc 8d500189  ..M.......E..P..
 103870 55fc8b55 f88d4a01 894df80f b6128810  U..U..J..M......
 103880 8b451083 e00885c0 0f84b800 00008b45  .E.............E
 103890 fc8d5001 8955fc8b 55f88d4a 01894df8  ..P..U..U..J..M.
 1038a0 0fb61288 108b45fc 8d500189 55fc8b55  ......E..P..U..U
 1038b0 f88d4a01 894df80f b6128810 8b45fc8d  ..J..M.......E..
 1038c0 50018955 fc8b55f8 8d4a0189 4df80fb6  P..U..U..J..M...
 1038d0 1288108b 45fc8d50 018955fc 8b55f88d  ....E..P..U..U..
 1038e0 4a01894d f80fb612 88108b45 fc8d5001  J..M.......E..P.
 1038f0 8955fc8b 55f88d4a 01894df8 0fb61288  .U..U..J..M.....
 103900 108b45fc 8d500189 55fc8b55 f88d4a01  ..E..P..U..U..J.
 103910 894df80f b6128810 8b45fc8d 50018955  .M.......E..P..U
 103920 fc8b55f8 8d4a0189 4df80fb6 1288108b  ..U..J..M.......
 103930 45fc8d50 018955fc 8b55f88d 4a01894d  E..P..U..U..J..M
 103940 f80fb612 88108b45 1083e004 85c0745c  .......E......t\
 103950 8b45fc8d 50018955 fc8b55f8 8d4a0189  .E..P..U..U..J..
 103960 4df80fb6 1288108b 45fc8d50 018955fc  M.......E..P..U.
 103970 8b55f88d 4a01894d f80fb612 88108b45  .U..J..M.......E
 103980 fc8d5001 8955fc8b 55f88d4a 01894df8  ..P..U..U..J..M.
 103990 0fb61288 108b45fc 8d500189 55fc8b55  ......E..P..U..U
 1039a0 f88d4a01 894df80f b6128810 8b451083  ..J..M.......E..
 1039b0 e00285c0 742e8b45 fc8d5001 8955fc8b  ....t..E..P..U..
 1039c0 55f88d4a 01894df8 0fb61288 108b45fc  U..J..M.......E.
 1039d0 8d500189 55fc8b55 f88d4a01 894df80f  .P..U..U..J..M..
 1039e0 b6128810 8b451083 e00185c0 740b8b45  .....E......t..E
 1039f0 f80fb610 8b45fc88 108b4508 c9c35589  .....E....E...U.
 103a00 e583ec10 8b550c8b 450831d0 83e00385  .....U..E.1.....
 103a10 c00f8580 000000eb 258b450c 0fb6108b  ........%.E.....
 103a20 45088810 8b45080f b60084c0 75088b45  E....E......u..E
 103a30 08e98300 00008345 0c018345 08018b45  .......E...E...E
 103a40 0c83e003 85c075d1 8b450889 45fc8b45  ......u..E..E..E
 103a50 0c8945f8 eb168b45 fc8d5004 8955fc8b  ..E....E..P..U..
 103a60 55f88d4a 04894df8 8b128910 8b45f88b  U..J..M......E..
 103a70 008d90ff fefefe8b 45f88b00 f7d021d0  ........E.....!.
 103a80 25808080 8085c074 cd8b45fc 8945088b  %......t..E..E..
 103a90 45f88945 0ceb0aeb 0883450c 01834508  E..E......E...E.
 103aa0 018b450c 0fb6108b 45088810 8b45080f  ..E.....E....E..
 103ab0 b60084c0 75e38b45 08c9c3             ....u..E...     
Contents of section .rodata:
 104000 4f53205a 696e2076 65727369 6f6e2030  OS Zin version 0
 104010 2e302e31 20626f6f 74696e67 2e2e2e20  .0.1 booting... 
 104020 0a000000 436f7079 72696768 74202863  ....Copyright (c
 104030 29204d61 6b657269 6d616765 73203230  ) Makerimages 20
 104040 31342d32 3031352e 204d4954 200a0000  14-2015. MIT ...
 104050 56697369 74207777 772e6f73 7a696e2e  Visit www.oszin.
 104060 63662066 6f72206d 6f726520 696e666f  cf for more info
 104070 726d6174 696f6e2e 20536f75 72636573  rmation. Sources
 104080 20617661 696c6162 6c65206f 6e204769   available on Gi
 104090 74487562 2e0a0000 4b65726e 656c3a20  tHub....Kernel: 
 1040a0 53746172 743a2030 7825782c 20456e64  Start: 0x%x, End
 1040b0 3a203078 25782c20 53697a65 3a202564  : 0x%x, Size: %d
 1040c0 204b422e 0a00456e 61626c69 6e672069   KB...Enabling i
 1040d0 6e746572 72757074 7320004f 4b2e0a00  nterrupts .OK...
 1040e0 53797374 656d2069 6e666f20 53544152  System info STAR
 1040f0 540a0009 4d616769 63206e75 6d626572  T...Magic number
 104100 2069733a 20307825 782e0020 4f4b0a00   is: 0x%x.. OK..
 104110 20464149 4c0a0000 094d756c 7469626f   FAIL....Multibo
 104120 6f742069 6e666f20 706f696e 74732074  ot info points t
 104130 6f3a2030 7825780a 00000000 09557369  o: 0x%x......Usi
 104140 6e672070 61737365 64206d65 6d6f7279  ng passed memory
 104150 206d6170 2c207768 69636820 666f6c6c   map, which foll
 104160 6f77732e 0a000000 09095265 67696f6e  ows.......Region
 104170 2c206164 64726573 73203078 25782073  , address 0x%x s
 104180 697a6520 2564204b 42207479 70652025  ize %d KB type %
 104190 642e0a00 09546f74 616c206d 656d6f72  d....Total memor
 1041a0 793a2025 64204b42 2e0a0009 4f662077  y: %d KB....Of w
 1041b0 68696368 20256420 4b422069 73207573  hich %d KB is us
 1041c0 61626c65 2e0a0000 094e6f20 6d656d6f  able.....No memo
 1041d0 7279206d 61702070 61737365 642c2075  ry map passed, u
 1041e0 73696e67 206d656d 5f757070 65722026  sing mem_upper &
 1041f0 206d656d 5f6c6f77 65722e0a 00537973   mem_lower...Sys
 104200 74656d20 696e666f 20454e44 0a000000  tem info END....
 104210 53746172 74203078 25782c20 656e643a  Start 0x%x, end:
 104220 20307825 782c2073 697a6520 25640a00   0x%x, size %d..
 104230 2e737472 74616200 2e73796d 74616200  .strtab..symtab.
 104240 53746163 6b747261 63652066 6f6c6c6f  Stacktrace follo
 104250 77733a0a 005b3078 25785d20 2573200a  ws:..[0x%x] %s .
 104260 00446976 69646520 6572726f 72004465  .Divide error.De
 104270 62756700 42726561 6b706f69 6e74004f  bug.Breakpoint.O
 104280 76657266 6c6f7700 426f756e 64207261  verflow.Bound ra
 104290 6e676520 65786565 64656400 496e7661  nge exeeded.Inva
 1042a0 6c696420 6f70636f 6465004e 6f206d61  lid opcode.No ma
 1042b0 74682063 6f70726f 63657373 6f720044  th coprocessor.D
 1042c0 6f75626c 65206661 756c7400 436f7072  ouble fault.Copr
 1042d0 6f636573 736f7220 7365676d 656e7420  ocessor segment 
 1042e0 6f766572 72756e00 496e7661 6c696420  overrun.Invalid 
 1042f0 54535300 5365676d 656e7420 6e6f7420  TSS.Segment not 
 104300 70726573 656e7400 53746163 6b2d7365  present.Stack-se
 104310 676d656e 74206661 756c7400 47500050  gment fault.GP.P
 104320 61676520 6661756c 7400466c 6f617469  age fault.Floati
 104330 6e672070 6f696e74 20657272 6f720041  ng point error.A
 104340 6c69676e 6d656e74 20636865 636b004d  lignment check.M
 104350 61636869 6e652063 6865636b 00537472  achine check.Str
 104360 65616d69 6e672053 494d4420 45787465  eaming SIMD Exte
 104370 6e73696f 6e730055 6e68616e 646c6564  nsions.Unhandled
 104380 20495251 21005061 67652066 61756c74   IRQ!.Page fault
 104390 2100496e 69746961 6c697a69 6e672070  !.Initializing p
 1043a0 6167696e 672e2e2e 20004f4b 0a000000  aging... .OK....
 1043b0 09496e69 7469616c 697a696e 6720504d  .Initializing PM
 1043c0 4d20004f 4b0a0000 09466972 73742066  M .OK....First f
 1043d0 72656520 70616765 20697320 61743a20  ree page is at: 
 1043e0 30782578 2e204e65 78743a20 30782578  0x%x. Next: 0x%x
 1043f0 2e0a0000 52534420 50545220 00275253  ....RSD PTR .'RS
 104400 44205054 52202720 6c6f6361 74656420  D PTR ' located 
 104410 61743a20 30782578 0a000000 496e6974  at: 0x%x....Init
 104420 69616c69 7a696e67 20414350 49207365  ializing ACPI se
 104430 72766963 65732e2e 2e0a0000 27525344  rvices......'RSD
 104440 20505452 2027206e 6f742066 6f756e64   PTR ' not found
 104450 20696e20 74686520 6d656d6f 72792072   in the memory r
 104460 616e6765 2e0a0055 73696e67 20525344  ange...Using RSD
 104470 50205461 626c6520 7072652d 322e302e  P Table pre-2.0.
 104480 0a004143 50492073 69676e61 74757265  ..ACPI signature
 104490 3a202573 4f454d49 443a2025 730a0056  : %sOEMID: %s..V
 1044a0 65726966 79696e67 20636865 636b7375  erifying checksu
 1044b0 6d3a2000 4f4b0a00 52534454 20746162  m: .OK..RSDT tab
 1044c0 6c65206c 6f636174 696f6e3a 20307825  le location: 0x%
 1044d0 780a0000 52534454 20414350 49534454  x...RSDT ACPISDT
 1044e0 48656164 65722053 69676e61 74757265  Header Signature
 1044f0 3a202573 0a000000 56657269 6679696e  : %s....Verifyin
 104500 67207965 7420616e 6f746865 72206368  g yet another ch
 104510 65636b73 756d2e20 00414350 49205265  ecksum. .ACPI Re
 104520 76697369 6f6e3a20 25642e0a 00415049  vision: %d...API
 104530 43004150 49433a20 30782578 0a000000  C.APIC: 0x%x....
 104540 4e4f5420 56455249 46494544 2c204341  NOT VERIFIED, CA
 104550 4e275420 434f4e54 494e5545 210a0041  N'T CONTINUE!..A
 104560 43504920 696e6974 69616c69 7a65642e  CPI initialized.
 104570 0a000000 46414350 00546865 72652069  ....FACP.There i
 104580 73206120 50532f32 20636f6e 74726f6c  s a PS/2 control
 104590 6c657200 556e6162 6c652074 6f206669  ler.Unable to fi
 1045a0 6e642061 2050532f 3220636f 6e74726f  nd a PS/2 contro
 1045b0 6c6c6572 2e20506f 73736962 6c652066  ller. Possible f
 1045c0 61696c75 7265206f 66206665 61747572  ailure of featur
 1045d0 65732e0a 00000000 41435049 20726576  es......ACPI rev
 1045e0 6973696f 6e206e6f 74206361 7061626c  ision not capabl
 1045f0 6520656e 6f756768 20746f20 64657465  e enough to dete
 104600 726d696e 65203830 34322e20 41737375  rmine 8042. Assu
 104610 6d696e67 206f6e65 20657869 7374732e  ming one exists.
 104620 2e2e0a00 53746172 74696e67 2050532f  ....Starting PS/
 104630 3220696e 69746961 6c697a61 74696f6e  2 initialization
 104640 0a000000 4475616c 20636861 6e6e656c  ....Dual channel
 104650 2050532f 3220636f 6e74726f 6c6c6572   PS/2 controller
 104660 2e0a0000 53696e67 6c652063 68616e6e  ....Single chann
 104670 656c2050 532f3220 636f6e74 726f6c6c  el PS/2 controll
 104680 65722e0a 0050532f 32207061 73736564  er...PS/2 passed
 104690 2073656c 662d7465 73742e0a 00000000   self-test......
 1046a0 50657266 6f726d69 6e672069 6e746572  Performing inter
 1046b0 66616365 20746573 74732e2e 2e0a0050  face tests.....P
 1046c0 6f727420 31207061 73732e0a 00506f72  ort 1 pass...Por
 1046d0 74203120 6661696c 210a0050 6f727420  t 1 fail!..Port 
 1046e0 32207061 73732e0a 00506f72 74203220  2 pass...Port 2 
 1046f0 6661696c 210a0053 6b697070 696e6720  fail!..Skipping 
 104700 506f7274 20322e0a 00456e61 626c696e  Port 2...Enablin
 104710 67205053 2f322064 65766963 65732e0a  g PS/2 devices..
 104720 00446576 69636520 6f6e2070 6f727420  .Device on port 
 104730 3120656e 61626c65 642e0a00 44657669  1 enabled...Devi
 104740 6365206f 6e20706f 72742032 20656e61  ce on port 2 ena
 104750 626c6564 2e0a0044 65766963 65203120  bled...Device 1 
 104760 72657365 74207375 63636573 732e0a00  reset success...
 104770 44657669 63652032 20726573 65742073  Device 2 reset s
 104780 75636365 73732e0a 00446576 69636520  uccess...Device 
 104790 32207265 73657420 6661696c 2e0a0000  2 reset fail....
 1047a0 50532f32 20666169 6c656420 73656c66  PS/2 failed self
 1047b0 2d746573 74212054 7279696e 67207365  -test! Trying se
 1047c0 74757020 6f6e6365 206d6f72 652e2e2e  tup once more...
 1047d0 0a000000 4661696c 65642074 6f207365  ....Failed to se
 1047e0 74207570 2050532f 3220666f 72207468  t up PS/2 for th
 1047f0 65207365 636f6e64 2074696d 652e2041  e second time. A
 104800 626f7274 2e000000 f4261000 c1261000  bort.....&...&..
 104810 23271000 a7271000 a7271000 a7271000  #'...'...'...'..
 104820 a7271000 a7271000 a7271000 a7271000  .'...'...'...'..
 104830 a7271000 a7271000 a7271000 a7271000  .'...'...'...'..
 104840 a7271000 a7271000 a7271000 dc261000  .'...'...'...&..
 104850 a7271000 4f271000 a7271000 a7271000  .'..O'...'...'..
 104860 7b271000 4f53205a 696e2068 61732063  {'..OS Zin has c
 104870 72617368 65642074 6f20756e 7265636f  rashed to unreco
 104880 76657261 626c6520 67726f75 6e647300  verable grounds.
 104890 4572726f 723a2000 53746163 6b747261  Error: .Stacktra
 1048a0 63652066 6f6c6c6f 77733a00 53797374  ce follows:.Syst
 1048b0 656d2068 616c7465 6420746f 2070726f  em halted to pro
 1048c0 74656374 20796f75 72205043 00000000  tect your PC....
 1048d0 506c6561 73652072 65626f6f 7420616e  Please reboot an
 1048e0 64206669 78207468 65206162 6f766520  d fix the above 
 1048f0 6572726f 72003000                    error.0.        
Contents of section .eh_frame:
 1048f8 14000000 00000000 017a5200 017c0801  .........zR..|..
 104908 1b0c0404 88010000 24000000 1c000000  ........$.......
 104918 c2b8ffff ed030000 00410e08 8502420d  .........A....B.
 104928 05448303 03e403c3 41c50c04 04000000  .D......A.......
 104938 1c000000 44000000 87bcffff 0a010000  ....D...........
 104948 00410e08 8502420d 05030601 c50c0404  .A....B.........
 104958 1c000000 64000000 71bdffff 9e000000  ....d...q.......
 104968 00410e08 8502420d 05029ac5 0c040400  .A....B.........
 104978 24000000 84000000 efbdffff 9d000000  $...............
 104988 00410e08 8502420d 05458603 83040292  .A....B..E......
 104998 c341c641 c50c0404 1c000000 ac000000  .A.A............
 1049a8 64beffff 1d000000 00410e08 8502420d  d........A....B.
 1049b8 0559c50c 04040000 1c000000 cc000000  .Y..............
 1049c8 61beffff 53000000 00410e08 8502420d  a...S....A....B.
 1049d8 05024fc5 0c040400 1c000000 ec000000  ..O.............
 1049e8 94beffff 14000000 00410e08 8502420d  .........A....B.
 1049f8 0550c50c 04040000 1c000000 0c010000  .P..............
 104a08 88beffff 14000000 00410e08 8502420d  .........A....B.
 104a18 0550c50c 04040000 1c000000 2c010000  .P..........,...
 104a28 7cbeffff 14000000 00410e08 8502420d  |........A....B.
 104a38 0550c50c 04040000 1c000000 4c010000  .P..........L...
 104a48 70beffff 14000000 00410e08 8502420d  p........A....B.
 104a58 0550c50c 04040000 1c000000 6c010000  .P..........l...
 104a68 64beffff 14000000 00410e08 8502420d  d........A....B.
 104a78 0550c50c 04040000 1c000000 8c010000  .P..............
 104a88 58beffff 14000000 00410e08 8502420d  X........A....B.
 104a98 0550c50c 04040000 1c000000 ac010000  .P..............
 104aa8 4cbeffff 14000000 00410e08 8502420d  L........A....B.
 104ab8 0550c50c 04040000 1c000000 cc010000  .P..............
 104ac8 40beffff 14000000 00410e08 8502420d  @........A....B.
 104ad8 0550c50c 04040000 1c000000 ec010000  .P..............
 104ae8 34beffff 14000000 00410e08 8502420d  4........A....B.
 104af8 0550c50c 04040000 1c000000 0c020000  .P..............
 104b08 28beffff 14000000 00410e08 8502420d  (........A....B.
 104b18 0550c50c 04040000 1c000000 2c020000  .P..........,...
 104b28 1cbeffff 14000000 00410e08 8502420d  .........A....B.
 104b38 0550c50c 04040000 1c000000 4c020000  .P..........L...
 104b48 10beffff 14000000 00410e08 8502420d  .........A....B.
 104b58 0550c50c 04040000 1c000000 6c020000  .P..........l...
 104b68 04beffff 14000000 00410e08 8502420d  .........A....B.
 104b78 0550c50c 04040000 1c000000 8c020000  .P..............
 104b88 f8bdffff 14000000 00410e08 8502420d  .........A....B.
 104b98 0550c50c 04040000 1c000000 ac020000  .P..............
 104ba8 ecbdffff 14000000 00410e08 8502420d  .........A....B.
 104bb8 0550c50c 04040000 1c000000 cc020000  .P..............
 104bc8 e0bdffff 14000000 00410e08 8502420d  .........A....B.
 104bd8 0550c50c 04040000 1c000000 ec020000  .P..............
 104be8 d4bdffff 14000000 00410e08 8502420d  .........A....B.
 104bf8 0550c50c 04040000 1c000000 0c030000  .P..............
 104c08 c8bdffff 14000000 00410e08 8502420d  .........A....B.
 104c18 0550c50c 04040000 1c000000 2c030000  .P..........,...
 104c28 bcbdffff 15090000 00410e08 8502420d  .........A....B.
 104c38 05031109 c50c0404 1c000000 4c030000  ............L...
 104c48 b1c6ffff 3f000000 00410e08 8502420d  ....?....A....B.
 104c58 057bc50c 04040000 1c000000 6c030000  .{..........l...
 104c68 d0c6ffff 40000000 00410e08 8502420d  ....@....A....B.
 104c78 057cc50c 04040000 1c000000 8c030000  .|..............
 104c88 f0c6ffff 79000000 00410e08 8502420d  ....y....A....B.
 104c98 050275c5 0c040400 1c000000 ac030000  ..u.............
 104ca8 49c7ffff 46000000 00410e08 8502420d  I...F....A....B.
 104cb8 050242c5 0c040400 1c000000 cc030000  ..B.............
 104cc8 6fc7ffff 1e000000 00410e08 8502420d  o........A....B.
 104cd8 055ac50c 04040000 1c000000 ec030000  .Z..............
 104ce8 6dc7ffff 1d000000 00410e08 8502420d  m........A....B.
 104cf8 0559c50c 04040000 20000000 0c040000  .Y...... .......
 104d08 6ac7ffff 58000000 00410e08 8502420d  j...X....A....B.
 104d18 05448303 024fc341 c50c0404 20000000  .D...O.A.... ...
 104d28 30040000 9ec7ffff 58000000 00410e08  0.......X....A..
 104d38 8502420d 05448303 024fc341 c50c0404  ..B..D...O.A....
 104d48 1c000000 54040000 d2c7ffff 1c000000  ....T...........
 104d58 00410e08 8502420d 0558c50c 04040000  .A....B..X......
 104d68 1c000000 74040000 cec7ffff 1c000000  ....t...........
 104d78 00410e08 8502420d 0558c50c 04040000  .A....B..X......
 104d88 1c000000 94040000 cac7ffff ec000000  ................
 104d98 00410e08 8502420d 0502e8c5 0c040400  .A....B.........
 104da8 1c000000 b4040000 96c8ffff 1e000000  ................
 104db8 00410e08 8502420d 055ac50c 04040000  .A....B..Z......
 104dc8 1c000000 d4040000 94c8ffff 1d000000  ................
 104dd8 00410e08 8502420d 0559c50c 04040000  .A....B..Y......
 104de8 1c000000 f4040000 91c8ffff 67000000  ............g...
 104df8 00410e08 8502420d 050263c5 0c040400  .A....B...c.....
 104e08 1c000000 14050000 d8c8ffff 46000000  ............F...
 104e18 00410e08 8502420d 050242c5 0c040400  .A....B...B.....
 104e28 1c000000 34050000 fec8ffff 1e000000  ....4...........
 104e38 00410e08 8502420d 055ac50c 04040000  .A....B..Z......
 104e48 1c000000 54050000 fcc8ffff 12000000  ....T...........
 104e58 00410e08 8502420d 054ec50c 04040000  .A....B..N......
 104e68 1c000000 74050000 eec8ffff a7000000  ....t...........
 104e78 00410e08 8502420d 0502a3c5 0c040400  .A....B.........
 104e88 1c000000 94050000 75c9ffff 14000000  ........u.......
 104e98 00410e08 8502420d 0550c50c 04040000  .A....B..P......
 104ea8 1c000000 b4050000 69c9ffff fa000000  ........i.......
 104eb8 00410e08 8502420d 0502f6c5 0c040400  .A....B.........
 104ec8 1c000000 d4050000 43caffff ae000000  ........C.......
 104ed8 00410e08 8502420d 0502aac5 0c040400  .A....B.........
 104ee8 1c000000 f4050000 d1caffff 1f000000  ................
 104ef8 00410e08 8502420d 055bc50c 04040000  .A....B..[......
 104f08 1c000000 14060000 d0caffff 21000000  ............!...
 104f18 00410e08 8502420d 055dc50c 04040000  .A....B..]......
 104f28 1c000000 34060000 d1caffff 50000000  ....4.......P...
 104f38 00410e08 8502420d 05024cc5 0c040400  .A....B...L.....
 104f48 1c000000 54060000 01cbffff 37000000  ....T.......7...
 104f58 00410e08 8502420d 0573c50c 04040000  .A....B..s......
 104f68 1c000000 74060000 18cbffff 3b000000  ....t.......;...
 104f78 00410e08 8502420d 0577c50c 04040000  .A....B..w......
 104f88 1c000000 94060000 33cbffff 9b000000  ........3.......
 104f98 00410e08 8502420d 050297c5 0c040400  .A....B.........
 104fa8 1c000000 b4060000 aecbffff c2000000  ................
 104fb8 00410e08 8502420d 0502bec5 0c040400  .A....B.........
 104fc8 1c000000 d4060000 50ccffff 12000000  ........P.......
 104fd8 00410e08 8502420d 054ec50c 04040000  .A....B..N......
 104fe8 1c000000 f4060000 42ccffff 6d020000  ........B...m...
 104ff8 00410e08 8502420d 05036902 c50c0404  .A....B...i.....
 105008 1c000000 14070000 8fceffff 68000000  ............h...
 105018 00410e08 8502420d 050264c5 0c040400  .A....B...d.....
 105028 1c000000 34070000 d7ceffff 0a000000  ....4...........
 105038 00410e08 8502420d 0546c50c 04040000  .A....B..F......
 105048 1c000000 54070000 c1ceffff 1e000000  ....T...........
 105058 00410e08 8502420d 055ac50c 04040000  .A....B..Z......
 105068 1c000000 74070000 bfceffff 1d000000  ....t...........
 105078 00410e08 8502420d 0559c50c 04040000  .A....B..Y......
 105088 1c000000 94070000 bcceffff bc000000  ................
 105098 00410e08 8502420d 0502b8c5 0c040400  .A....B.........
 1050a8 1c000000 b4070000 58cfffff 07050000  ........X.......
 1050b8 00410e08 8502420d 05030305 c50c0404  .A....B.........
 1050c8 1c000000 d4070000 3fd4ffff 1f000000  ........?.......
 1050d8 00410e08 8502420d 055bc50c 04040000  .A....B..[......
 1050e8 1c000000 f4070000 3ed4ffff 1f000000  ........>.......
 1050f8 00410e08 8502420d 055bc50c 04040000  .A....B..[......
 105108 1c000000 14080000 3dd4ffff 20000000  ........=... ...
 105118 00410e08 8502420d 055cc50c 04040000  .A....B..\......
 105128 1c000000 34080000 3dd4ffff 81000000  ....4...=.......
 105138 00410e08 8502420d 05027dc5 0c040400  .A....B...}.....
 105148 20000000 54080000 9ed4ffff 78000000   ...T.......x...
 105158 00410e08 8502420d 05448303 026fc341  .A....B..D...o.A
 105168 c50c0404 1c000000 78080000 f2d4ffff  ........x.......
 105178 20000000 00410e08 8502420d 055cc50c   ....A....B..\..
 105188 04040000 1c000000 98080000 f2d4ffff  ................
 105198 56010000 00410e08 8502420d 05035201  V....A....B...R.
 1051a8 c50c0404 24000000 b8080000 28d6ffff  ....$.......(...
 1051b8 1a020000 00410e08 8502420d 05448303  .....A....B..D..
 1051c8 031102c3 41c50c04 04000000 1c000000  ....A...........
 1051d8 e0080000 1ad8ffff 2b000000 00410e08  ........+....A..
 1051e8 8502420d 0567c50c 04040000 1c000000  ..B..g..........
 1051f8 00090000 25d8ffff 17000000 00410e08  ....%........A..
 105208 8502420d 0553c50c 04040000 1c000000  ..B..S..........
 105218 20090000 1cd8ffff 30000000 00410e08   .......0....A..
 105228 8502420d 056cc50c 04040000 1c000000  ..B..l..........
 105238 40090000 2cd8ffff 15000000 00410e08  @...,........A..
 105248 8502420d 0551c50c 04040000 1c000000  ..B..Q..........
 105258 60090000 21d8ffff 8e010000 00410e08  `...!........A..
 105268 8502420d 05458603 83040000 20000000  ..B..E...... ...
 105278 80090000 8fd9ffff fb000000 00410e08  .............A..
 105288 8502420d 05448303 02f2c341 c50c0404  ..B..D.....A....
 105298 1c000000 a4090000 66daffff 8b000000  ........f.......
 1052a8 00410e08 8502420d 050287c5 0c040400  .A....B.........
 1052b8 1c000000 c4090000 d1daffff 5b000000  ............[...
 1052c8 00410e08 8502420d 050257c5 0c040400  .A....B...W.....
 1052d8 1c000000 e4090000 0cdbffff 80010000  ................
 1052e8 00410e08 8502420d 05037c01 c50c0404  .A....B...|.....
 1052f8 28000000 040a0000 6cdcffff 47020000  (.......l...G...
 105308 00410e08 8502420d 05458603 8304033c  .A....B..E.....<
 105318 02c341c6 41c50c04 04000000 1c000000  ..A.A...........
 105328 300a0000 87deffff 3f000000 00410e08  0.......?....A..
 105338 8502420d 057bc50c 04040000 1c000000  ..B..{..........
 105348 500a0000 a6deffff 1d000000 00410e08  P............A..
 105358 8502420d 0559c50c 04040000 1c000000  ..B..Y..........
 105368 700a0000 a3deffff 7d000000 00410e08  p.......}....A..
 105378 8502420d 050279c5 0c040400 1c000000  ..B...y.........
 105388 900a0000 00dfffff 76000000 00410e08  ........v....A..
 105398 8502420d 050272c5 0c040400 1c000000  ..B...r.........
 1053a8 b00a0000 56dfffff fc060000 00410e08  ....V........A..
 1053b8 8502420d 0503f806 c50c0404 1c000000  ..B.............
 1053c8 d00a0000 32e6ffff bd000000 00410e08  ....2........A..
 1053d8 8502420d 0502b9c5 0c040400           ..B.........    
Contents of section .data:
 106000 00000000 00000000 ffff0000 009acf00  ................
 106010 ffff0000 0092cf00 ffff0000 00facf00  ................
 106020 ffff0000 00f2cf00 27000000 00000000  ........'.......
 106030 00000000 00000000 00000000 00000000  ................
 106040 00000000 00000000 00000000 00097e00  ..............~.
 106050 00000000 00713100 00007a73 61773200  .....q1...zsaw2.
 106060 00637864 65343300 00207666 74723500  .cxde43.. vftr5.
 106070 006e6268 67793600 00006d6a 75373800  .nbhgy6...mju78.
 106080 002c6b69 6f303900 002e2f6c 3b702d00  .,kio09.../l;p-.
 106090 00002700 5b3d0000 00000a5d 005c0000  ..'.[=.....].\..
 1060a0 00000000 00000800 00000000 00000000  ................
 1060b0 00000000 00000000 00000000 00000000  ................
Contents of section .comment:
 0000 4743433a 2028474e 55292034 2e382e35  GCC: (GNU) 4.8.5
 0010 00                                   .               

Disassembly of section .text:

00100000 <Kstart>:
  100000:	02 b0 ad 1b 03 00    	add    0x31bad(%eax),%dh
  100006:	00 00                	add    %al,(%eax)
  100008:	fb                   	sti    
  100009:	4f                   	dec    %edi
  10000a:	52                   	push   %edx
  10000b:	e4 bc                	in     $0xbc,%al

0010000c <_start>:
  10000c:	bc 40 b9 10 00       	mov    $0x10b940,%esp
  100011:	31 ed                	xor    %ebp,%ebp
  100013:	50                   	push   %eax
  100014:	53                   	push   %ebx
  100015:	83 ec 06             	sub    $0x6,%esp
  100018:	66 8b 0d 28 60 10 00 	mov    0x106028,%cx
  10001f:	66 89 0c 24          	mov    %cx,(%esp)
  100023:	b9 00 60 10 00       	mov    $0x106000,%ecx
  100028:	89 4c 24 02          	mov    %ecx,0x2(%esp)
  10002c:	0f 01 14 24          	lgdtl  (%esp)
  100030:	83 c4 06             	add    $0x6,%esp
  100033:	6a 08                	push   $0x8
  100035:	68 3b 00 10 00       	push   $0x10003b
  10003a:	cb                   	lret   
  10003b:	66 b9 10 00          	mov    $0x10,%cx
  10003f:	8e d9                	mov    %ecx,%ds
  100041:	8e c1                	mov    %ecx,%es
  100043:	8e e1                	mov    %ecx,%fs
  100045:	8e e9                	mov    %ecx,%gs
  100047:	8e d1                	mov    %ecx,%ss
  100049:	e8 8c 01 00 00       	call   1001da <kernel_main>
  10004e:	eb 00                	jmp    100050 <_start+0x44>
  100050:	eb fe                	jmp    100050 <_start+0x44>

00100052 <isr0>:
  100052:	6a 00                	push   $0x0
  100054:	6a 00                	push   $0x0
  100056:	e9 55 01 00 00       	jmp    1001b0 <interrupt_handler_prepare>

0010005b <isr1>:
  10005b:	6a 00                	push   $0x0
  10005d:	6a 01                	push   $0x1
  10005f:	e9 4c 01 00 00       	jmp    1001b0 <interrupt_handler_prepare>

00100064 <isr2>:
  100064:	6a 00                	push   $0x0
  100066:	6a 02                	push   $0x2
  100068:	e9 43 01 00 00       	jmp    1001b0 <interrupt_handler_prepare>

0010006d <isr3>:
  10006d:	6a 00                	push   $0x0
  10006f:	6a 03                	push   $0x3
  100071:	e9 3a 01 00 00       	jmp    1001b0 <interrupt_handler_prepare>

00100076 <isr4>:
  100076:	6a 00                	push   $0x0
  100078:	6a 04                	push   $0x4
  10007a:	e9 31 01 00 00       	jmp    1001b0 <interrupt_handler_prepare>

0010007f <isr5>:
  10007f:	6a 00                	push   $0x0
  100081:	6a 05                	push   $0x5
  100083:	e9 28 01 00 00       	jmp    1001b0 <interrupt_handler_prepare>

00100088 <isr6>:
  100088:	6a 00                	push   $0x0
  10008a:	6a 06                	push   $0x6
  10008c:	e9 1f 01 00 00       	jmp    1001b0 <interrupt_handler_prepare>

00100091 <isr7>:
  100091:	6a 00                	push   $0x0
  100093:	6a 07                	push   $0x7
  100095:	e9 16 01 00 00       	jmp    1001b0 <interrupt_handler_prepare>

0010009a <isr8>:
  10009a:	6a 08                	push   $0x8
  10009c:	e9 0f 01 00 00       	jmp    1001b0 <interrupt_handler_prepare>

001000a1 <isr9>:
  1000a1:	6a 00                	push   $0x0
  1000a3:	6a 09                	push   $0x9
  1000a5:	e9 06 01 00 00       	jmp    1001b0 <interrupt_handler_prepare>

001000aa <isr10>:
  1000aa:	6a 0a                	push   $0xa
  1000ac:	e9 ff 00 00 00       	jmp    1001b0 <interrupt_handler_prepare>

001000b1 <isr11>:
  1000b1:	6a 0b                	push   $0xb
  1000b3:	e9 f8 00 00 00       	jmp    1001b0 <interrupt_handler_prepare>

001000b8 <isr12>:
  1000b8:	6a 0c                	push   $0xc
  1000ba:	e9 f1 00 00 00       	jmp    1001b0 <interrupt_handler_prepare>

001000bf <isr13>:
  1000bf:	6a 0d                	push   $0xd
  1000c1:	e9 ea 00 00 00       	jmp    1001b0 <interrupt_handler_prepare>

001000c6 <isr14>:
  1000c6:	6a 0e                	push   $0xe
  1000c8:	e9 e3 00 00 00       	jmp    1001b0 <interrupt_handler_prepare>

001000cd <isr15>:
  1000cd:	6a 00                	push   $0x0
  1000cf:	6a 0f                	push   $0xf
  1000d1:	e9 da 00 00 00       	jmp    1001b0 <interrupt_handler_prepare>

001000d6 <isr16>:
  1000d6:	6a 00                	push   $0x0
  1000d8:	6a 10                	push   $0x10
  1000da:	e9 d1 00 00 00       	jmp    1001b0 <interrupt_handler_prepare>

001000df <isr17>:
  1000df:	6a 11                	push   $0x11
  1000e1:	e9 ca 00 00 00       	jmp    1001b0 <interrupt_handler_prepare>

001000e6 <isr18>:
  1000e6:	6a 00                	push   $0x0
  1000e8:	6a 12                	push   $0x12
  1000ea:	e9 c1 00 00 00       	jmp    1001b0 <interrupt_handler_prepare>

001000ef <isr19>:
  1000ef:	6a 00                	push   $0x0
  1000f1:	6a 13                	push   $0x13
  1000f3:	e9 b8 00 00 00       	jmp    1001b0 <interrupt_handler_prepare>

001000f8 <isr20>:
  1000f8:	6a 00                	push   $0x0
  1000fa:	6a 14                	push   $0x14
  1000fc:	e9 af 00 00 00       	jmp    1001b0 <interrupt_handler_prepare>

00100101 <isr21>:
  100101:	6a 00                	push   $0x0
  100103:	6a 15                	push   $0x15
  100105:	e9 a6 00 00 00       	jmp    1001b0 <interrupt_handler_prepare>

0010010a <isr22>:
  10010a:	6a 00                	push   $0x0
  10010c:	6a 16                	push   $0x16
  10010e:	e9 9d 00 00 00       	jmp    1001b0 <interrupt_handler_prepare>

00100113 <isr23>:
  100113:	6a 00                	push   $0x0
  100115:	6a 17                	push   $0x17
  100117:	e9 94 00 00 00       	jmp    1001b0 <interrupt_handler_prepare>

0010011c <isr24>:
  10011c:	6a 00                	push   $0x0
  10011e:	6a 18                	push   $0x18
  100120:	e9 8b 00 00 00       	jmp    1001b0 <interrupt_handler_prepare>

00100125 <isr25>:
  100125:	6a 00                	push   $0x0
  100127:	6a 19                	push   $0x19
  100129:	e9 82 00 00 00       	jmp    1001b0 <interrupt_handler_prepare>

0010012e <isr26>:
  10012e:	6a 00                	push   $0x0
  100130:	6a 1a                	push   $0x1a
  100132:	eb 7c                	jmp    1001b0 <interrupt_handler_prepare>

00100134 <isr27>:
  100134:	6a 00                	push   $0x0
  100136:	6a 1b                	push   $0x1b
  100138:	eb 76                	jmp    1001b0 <interrupt_handler_prepare>

0010013a <isr28>:
  10013a:	6a 00                	push   $0x0
  10013c:	6a 1c                	push   $0x1c
  10013e:	eb 70                	jmp    1001b0 <interrupt_handler_prepare>

00100140 <isr29>:
  100140:	6a 00                	push   $0x0
  100142:	6a 1d                	push   $0x1d
  100144:	eb 6a                	jmp    1001b0 <interrupt_handler_prepare>

00100146 <isr30>:
  100146:	6a 1e                	push   $0x1e
  100148:	eb 66                	jmp    1001b0 <interrupt_handler_prepare>

0010014a <isr31>:
  10014a:	6a 00                	push   $0x0
  10014c:	6a 1f                	push   $0x1f
  10014e:	eb 60                	jmp    1001b0 <interrupt_handler_prepare>

00100150 <irq0>:
  100150:	6a 00                	push   $0x0
  100152:	6a 20                	push   $0x20
  100154:	eb 5a                	jmp    1001b0 <interrupt_handler_prepare>

00100156 <irq1>:
  100156:	6a 00                	push   $0x0
  100158:	6a 21                	push   $0x21
  10015a:	eb 54                	jmp    1001b0 <interrupt_handler_prepare>

0010015c <irq2>:
  10015c:	6a 00                	push   $0x0
  10015e:	6a 22                	push   $0x22
  100160:	eb 4e                	jmp    1001b0 <interrupt_handler_prepare>

00100162 <irq3>:
  100162:	6a 00                	push   $0x0
  100164:	6a 23                	push   $0x23
  100166:	eb 48                	jmp    1001b0 <interrupt_handler_prepare>

00100168 <irq4>:
  100168:	6a 00                	push   $0x0
  10016a:	6a 24                	push   $0x24
  10016c:	eb 42                	jmp    1001b0 <interrupt_handler_prepare>

0010016e <irq5>:
  10016e:	6a 00                	push   $0x0
  100170:	6a 25                	push   $0x25
  100172:	eb 3c                	jmp    1001b0 <interrupt_handler_prepare>

00100174 <irq6>:
  100174:	6a 00                	push   $0x0
  100176:	6a 26                	push   $0x26
  100178:	eb 36                	jmp    1001b0 <interrupt_handler_prepare>

0010017a <irq7>:
  10017a:	6a 00                	push   $0x0
  10017c:	6a 27                	push   $0x27
  10017e:	eb 30                	jmp    1001b0 <interrupt_handler_prepare>

00100180 <irq8>:
  100180:	6a 00                	push   $0x0
  100182:	6a 28                	push   $0x28
  100184:	eb 2a                	jmp    1001b0 <interrupt_handler_prepare>

00100186 <irq9>:
  100186:	6a 00                	push   $0x0
  100188:	6a 29                	push   $0x29
  10018a:	eb 24                	jmp    1001b0 <interrupt_handler_prepare>

0010018c <irq10>:
  10018c:	6a 00                	push   $0x0
  10018e:	6a 2a                	push   $0x2a
  100190:	eb 1e                	jmp    1001b0 <interrupt_handler_prepare>

00100192 <irq11>:
  100192:	6a 00                	push   $0x0
  100194:	6a 2b                	push   $0x2b
  100196:	eb 18                	jmp    1001b0 <interrupt_handler_prepare>

00100198 <irq12>:
  100198:	6a 00                	push   $0x0
  10019a:	6a 2c                	push   $0x2c
  10019c:	eb 12                	jmp    1001b0 <interrupt_handler_prepare>

0010019e <irq13>:
  10019e:	6a 00                	push   $0x0
  1001a0:	6a 2d                	push   $0x2d
  1001a2:	eb 0c                	jmp    1001b0 <interrupt_handler_prepare>

001001a4 <irq14>:
  1001a4:	6a 00                	push   $0x0
  1001a6:	6a 2e                	push   $0x2e
  1001a8:	eb 06                	jmp    1001b0 <interrupt_handler_prepare>

001001aa <irq15>:
  1001aa:	6a 00                	push   $0x0
  1001ac:	6a 2f                	push   $0x2f
  1001ae:	eb 00                	jmp    1001b0 <interrupt_handler_prepare>

001001b0 <interrupt_handler_prepare>:
  1001b0:	60                   	pusha  
  1001b1:	1e                   	push   %ds
  1001b2:	06                   	push   %es
  1001b3:	0f a0                	push   %fs
  1001b5:	0f a8                	push   %gs
  1001b7:	b8 10 00 00 00       	mov    $0x10,%eax
  1001bc:	8e d8                	mov    %eax,%ds
  1001be:	8e c0                	mov    %eax,%es
  1001c0:	8e e0                	mov    %eax,%fs
  1001c2:	8e e8                	mov    %eax,%gs
  1001c4:	54                   	push   %esp
  1001c5:	b8 f1 13 10 00       	mov    $0x1013f1,%eax
  1001ca:	ff d0                	call   *%eax
  1001cc:	83 c4 04             	add    $0x4,%esp
  1001cf:	0f a9                	pop    %gs
  1001d1:	0f a1                	pop    %fs
  1001d3:	07                   	pop    %es
  1001d4:	1f                   	pop    %ds
  1001d5:	61                   	popa   
  1001d6:	83 c4 08             	add    $0x8,%esp
  1001d9:	cf                   	iret   

001001da <kernel_main>:
  1001da:	55                   	push   %ebp
  1001db:	89 e5                	mov    %esp,%ebp
  1001dd:	53                   	push   %ebx
  1001de:	83 ec 24             	sub    $0x24,%esp
  1001e1:	8b 45 08             	mov    0x8(%ebp),%eax
  1001e4:	83 c0 1c             	add    $0x1c,%eax
  1001e7:	89 04 24             	mov    %eax,(%esp)
  1001ea:	e8 d8 03 00 00       	call   1005c7 <elf_init>
  1001ef:	c7 44 24 04 19 00 00 	movl   $0x19,0x4(%esp)
  1001f6:	00 
  1001f7:	c7 04 24 50 00 00 00 	movl   $0x50,(%esp)
  1001fe:	e8 6a 23 00 00       	call   10256d <textmode_init>
  100203:	ba 40 b9 10 00       	mov    $0x10b940,%edx
  100208:	b8 00 00 10 00       	mov    $0x100000,%eax
  10020d:	29 c2                	sub    %eax,%edx
  10020f:	89 d0                	mov    %edx,%eax
  100211:	89 45 f0             	mov    %eax,-0x10(%ebp)
  100214:	c7 04 24 00 40 10 00 	movl   $0x104000,(%esp)
  10021b:	e8 d6 27 00 00       	call   1029f6 <kputs>
  100220:	c7 04 24 24 40 10 00 	movl   $0x104024,(%esp)
  100227:	e8 ca 27 00 00       	call   1029f6 <kputs>
  10022c:	c7 04 24 50 40 10 00 	movl   $0x104050,(%esp)
  100233:	e8 be 27 00 00       	call   1029f6 <kputs>
  100238:	8b 45 f0             	mov    -0x10(%ebp),%eax
  10023b:	c1 e8 0a             	shr    $0xa,%eax
  10023e:	89 44 24 0c          	mov    %eax,0xc(%esp)
  100242:	c7 44 24 08 40 b9 10 	movl   $0x10b940,0x8(%esp)
  100249:	00 
  10024a:	c7 44 24 04 00 00 10 	movl   $0x100000,0x4(%esp)
  100251:	00 
  100252:	c7 04 24 98 40 10 00 	movl   $0x104098,(%esp)
  100259:	e8 08 24 00 00       	call   102666 <kprintf>
  10025e:	c7 04 24 c6 40 10 00 	movl   $0x1040c6,(%esp)
  100265:	e8 8c 27 00 00       	call   1029f6 <kputs>
  10026a:	e8 75 07 00 00       	call   1009e4 <idt_initialize>
  10026f:	e8 e6 12 00 00       	call   10155a <pic_initialize>
  100274:	fb                   	sti    
  100275:	c7 44 24 04 00 00 00 	movl   $0x0,0x4(%esp)
  10027c:	00 
  10027d:	c7 04 24 02 00 00 00 	movl   $0x2,(%esp)
  100284:	e8 98 27 00 00       	call   102a21 <kputcolor>
  100289:	c7 04 24 db 40 10 00 	movl   $0x1040db,(%esp)
  100290:	e8 61 27 00 00       	call   1029f6 <kputs>
  100295:	c7 44 24 04 00 00 00 	movl   $0x0,0x4(%esp)
  10029c:	00 
  10029d:	c7 04 24 07 00 00 00 	movl   $0x7,(%esp)
  1002a4:	e8 78 27 00 00       	call   102a21 <kputcolor>
  1002a9:	c7 44 24 04 00 00 00 	movl   $0x0,0x4(%esp)
  1002b0:	00 
  1002b1:	c7 04 24 09 00 00 00 	movl   $0x9,(%esp)
  1002b8:	e8 64 27 00 00       	call   102a21 <kputcolor>
  1002bd:	c7 04 24 e0 40 10 00 	movl   $0x1040e0,(%esp)
  1002c4:	e8 2d 27 00 00       	call   1029f6 <kputs>
  1002c9:	c7 44 24 04 00 00 00 	movl   $0x0,0x4(%esp)
  1002d0:	00 
  1002d1:	c7 04 24 07 00 00 00 	movl   $0x7,(%esp)
  1002d8:	e8 44 27 00 00       	call   102a21 <kputcolor>
  1002dd:	8b 45 0c             	mov    0xc(%ebp),%eax
  1002e0:	89 44 24 04          	mov    %eax,0x4(%esp)
  1002e4:	c7 04 24 f3 40 10 00 	movl   $0x1040f3,(%esp)
  1002eb:	e8 76 23 00 00       	call   102666 <kprintf>
  1002f0:	81 7d 0c 02 b0 ad 2b 	cmpl   $0x2badb002,0xc(%ebp)
  1002f7:	75 36                	jne    10032f <kernel_main+0x155>
  1002f9:	c7 44 24 04 00 00 00 	movl   $0x0,0x4(%esp)
  100300:	00 
  100301:	c7 04 24 02 00 00 00 	movl   $0x2,(%esp)
  100308:	e8 14 27 00 00       	call   102a21 <kputcolor>
  10030d:	c7 04 24 0b 41 10 00 	movl   $0x10410b,(%esp)
  100314:	e8 dd 26 00 00       	call   1029f6 <kputs>
  100319:	c7 44 24 04 00 00 00 	movl   $0x0,0x4(%esp)
  100320:	00 
  100321:	c7 04 24 07 00 00 00 	movl   $0x7,(%esp)
  100328:	e8 f4 26 00 00       	call   102a21 <kputcolor>
  10032d:	eb 34                	jmp    100363 <kernel_main+0x189>
  10032f:	c7 44 24 04 00 00 00 	movl   $0x0,0x4(%esp)
  100336:	00 
  100337:	c7 04 24 02 00 00 00 	movl   $0x2,(%esp)
  10033e:	e8 de 26 00 00       	call   102a21 <kputcolor>
  100343:	c7 04 24 10 41 10 00 	movl   $0x104110,(%esp)
  10034a:	e8 a7 26 00 00       	call   1029f6 <kputs>
  10034f:	c7 44 24 04 00 00 00 	movl   $0x0,0x4(%esp)
  100356:	00 
  100357:	c7 04 24 07 00 00 00 	movl   $0x7,(%esp)
  10035e:	e8 be 26 00 00       	call   102a21 <kputcolor>
  100363:	8d 45 08             	lea    0x8(%ebp),%eax
  100366:	89 44 24 04          	mov    %eax,0x4(%esp)
  10036a:	c7 04 24 18 41 10 00 	movl   $0x104118,(%esp)
  100371:	e8 f0 22 00 00       	call   102666 <kprintf>
  100376:	8b 45 08             	mov    0x8(%ebp),%eax
  100379:	8b 00                	mov    (%eax),%eax
  10037b:	83 e0 40             	and    $0x40,%eax
  10037e:	85 c0                	test   %eax,%eax
  100380:	0f 84 5e 01 00 00    	je     1004e4 <kernel_main+0x30a>
  100386:	c7 44 24 04 00 00 00 	movl   $0x0,0x4(%esp)
  10038d:	00 
  10038e:	c7 04 24 02 00 00 00 	movl   $0x2,(%esp)
  100395:	e8 87 26 00 00       	call   102a21 <kputcolor>
  10039a:	c7 04 24 3c 41 10 00 	movl   $0x10413c,(%esp)
  1003a1:	e8 50 26 00 00       	call   1029f6 <kputs>
  1003a6:	c7 44 24 04 00 00 00 	movl   $0x0,0x4(%esp)
  1003ad:	00 
  1003ae:	c7 04 24 07 00 00 00 	movl   $0x7,(%esp)
  1003b5:	e8 67 26 00 00       	call   102a21 <kputcolor>
  1003ba:	8b 45 08             	mov    0x8(%ebp),%eax
  1003bd:	8b 40 30             	mov    0x30(%eax),%eax
  1003c0:	89 45 f4             	mov    %eax,-0xc(%ebp)
  1003c3:	e9 8c 00 00 00       	jmp    100454 <kernel_main+0x27a>
  1003c8:	8b 45 f4             	mov    -0xc(%ebp),%eax
  1003cb:	8b 10                	mov    (%eax),%edx
  1003cd:	8b 45 f4             	mov    -0xc(%ebp),%eax
  1003d0:	01 d0                	add    %edx,%eax
  1003d2:	83 c0 04             	add    $0x4,%eax
  1003d5:	89 45 f4             	mov    %eax,-0xc(%ebp)
  1003d8:	8b 45 f4             	mov    -0xc(%ebp),%eax
  1003db:	8b 50 10             	mov    0x10(%eax),%edx
  1003de:	8b 40 0c             	mov    0xc(%eax),%eax
  1003e1:	89 c2                	mov    %eax,%edx
  1003e3:	a1 14 70 10 00       	mov    0x107014,%eax
  1003e8:	01 d0                	add    %edx,%eax
  1003ea:	a3 14 70 10 00       	mov    %eax,0x107014
  1003ef:	8b 45 f4             	mov    -0xc(%ebp),%eax
  1003f2:	8b 48 14             	mov    0x14(%eax),%ecx
  1003f5:	8b 45 f4             	mov    -0xc(%ebp),%eax
  1003f8:	8b 50 10             	mov    0x10(%eax),%edx
  1003fb:	8b 40 0c             	mov    0xc(%eax),%eax
  1003fe:	c1 e8 0a             	shr    $0xa,%eax
  100401:	89 c3                	mov    %eax,%ebx
  100403:	8b 45 f4             	mov    -0xc(%ebp),%eax
  100406:	8b 50 08             	mov    0x8(%eax),%edx
  100409:	8b 40 04             	mov    0x4(%eax),%eax
  10040c:	89 4c 24 0c          	mov    %ecx,0xc(%esp)
  100410:	89 5c 24 08          	mov    %ebx,0x8(%esp)
  100414:	89 44 24 04          	mov    %eax,0x4(%esp)
  100418:	c7 04 24 68 41 10 00 	movl   $0x104168,(%esp)
  10041f:	e8 42 22 00 00       	call   102666 <kprintf>
  100424:	8b 45 f4             	mov    -0xc(%ebp),%eax
  100427:	8b 40 14             	mov    0x14(%eax),%eax
  10042a:	83 f8 01             	cmp    $0x1,%eax
  10042d:	75 25                	jne    100454 <kernel_main+0x27a>
  10042f:	8b 45 f4             	mov    -0xc(%ebp),%eax
  100432:	8b 50 10             	mov    0x10(%eax),%edx
  100435:	8b 40 0c             	mov    0xc(%eax),%eax
  100438:	89 c2                	mov    %eax,%edx
  10043a:	a1 60 70 10 00       	mov    0x107060,%eax
  10043f:	01 d0                	add    %edx,%eax
  100441:	a3 60 70 10 00       	mov    %eax,0x107060
  100446:	8b 45 f4             	mov    -0xc(%ebp),%eax
  100449:	8b 50 08             	mov    0x8(%eax),%edx
  10044c:	8b 40 04             	mov    0x4(%eax),%eax
  10044f:	a3 48 70 10 00       	mov    %eax,0x107048
  100454:	8b 45 08             	mov    0x8(%ebp),%eax
  100457:	8b 50 30             	mov    0x30(%eax),%edx
  10045a:	8b 45 08             	mov    0x8(%ebp),%eax
  10045d:	8b 40 2c             	mov    0x2c(%eax),%eax
  100460:	01 d0                	add    %edx,%eax
  100462:	3b 45 f4             	cmp    -0xc(%ebp),%eax
  100465:	0f 87 5d ff ff ff    	ja     1003c8 <kernel_main+0x1ee>
  10046b:	a1 14 70 10 00       	mov    0x107014,%eax
  100470:	c1 e8 0a             	shr    $0xa,%eax
  100473:	a3 14 70 10 00       	mov    %eax,0x107014
  100478:	a1 60 70 10 00       	mov    0x107060,%eax
  10047d:	c1 e8 0a             	shr    $0xa,%eax
  100480:	a3 60 70 10 00       	mov    %eax,0x107060
  100485:	a1 14 70 10 00       	mov    0x107014,%eax
  10048a:	89 44 24 04          	mov    %eax,0x4(%esp)
  10048e:	c7 04 24 94 41 10 00 	movl   $0x104194,(%esp)
  100495:	e8 cc 21 00 00       	call   102666 <kprintf>
  10049a:	a1 60 70 10 00       	mov    0x107060,%eax
  10049f:	89 44 24 04          	mov    %eax,0x4(%esp)
  1004a3:	c7 04 24 ab 41 10 00 	movl   $0x1041ab,(%esp)
  1004aa:	e8 b7 21 00 00       	call   102666 <kprintf>
  1004af:	a1 60 70 10 00       	mov    0x107060,%eax
  1004b4:	c1 e0 0a             	shl    $0xa,%eax
  1004b7:	2b 45 f0             	sub    -0x10(%ebp),%eax
  1004ba:	89 c2                	mov    %eax,%edx
  1004bc:	b8 40 b9 10 00       	mov    $0x10b940,%eax
  1004c1:	89 54 24 04          	mov    %edx,0x4(%esp)
  1004c5:	89 04 24             	mov    %eax,(%esp)
  1004c8:	e8 46 14 00 00       	call   101913 <pmm_init>
  1004cd:	e8 2f 15 00 00       	call   101a01 <pmm_map>
  1004d2:	66 a1 00 00 00 00    	mov    0x0,%ax
  1004d8:	66 8b 0d 00 00 00 00 	mov    0x0,%cx
  1004df:	66 f7 f1             	div    %cx
  1004e2:	eb 5e                	jmp    100542 <kernel_main+0x368>
  1004e4:	8b 45 08             	mov    0x8(%ebp),%eax
  1004e7:	8b 00                	mov    (%eax),%eax
  1004e9:	83 e0 01             	and    $0x1,%eax
  1004ec:	85 c0                	test   %eax,%eax
  1004ee:	74 52                	je     100542 <kernel_main+0x368>
  1004f0:	c7 44 24 04 00 00 00 	movl   $0x0,0x4(%esp)
  1004f7:	00 
  1004f8:	c7 04 24 04 00 00 00 	movl   $0x4,(%esp)
  1004ff:	e8 1d 25 00 00       	call   102a21 <kputcolor>
  100504:	c7 04 24 c8 41 10 00 	movl   $0x1041c8,(%esp)
  10050b:	e8 e6 24 00 00       	call   1029f6 <kputs>
  100510:	8b 45 08             	mov    0x8(%ebp),%eax
  100513:	8b 50 08             	mov    0x8(%eax),%edx
  100516:	8b 45 08             	mov    0x8(%ebp),%eax
  100519:	8b 40 04             	mov    0x4(%eax),%eax
  10051c:	01 d0                	add    %edx,%eax
  10051e:	89 44 24 04          	mov    %eax,0x4(%esp)
  100522:	c7 04 24 94 41 10 00 	movl   $0x104194,(%esp)
  100529:	e8 38 21 00 00       	call   102666 <kprintf>
  10052e:	c7 44 24 04 00 00 00 	movl   $0x0,0x4(%esp)
  100535:	00 
  100536:	c7 04 24 07 00 00 00 	movl   $0x7,(%esp)
  10053d:	e8 df 24 00 00       	call   102a21 <kputcolor>
  100542:	c7 44 24 04 00 00 00 	movl   $0x0,0x4(%esp)
  100549:	00 
  10054a:	c7 04 24 09 00 00 00 	movl   $0x9,(%esp)
  100551:	e8 cb 24 00 00       	call   102a21 <kputcolor>
  100556:	c7 04 24 fd 41 10 00 	movl   $0x1041fd,(%esp)
  10055d:	e8 94 24 00 00       	call   1029f6 <kputs>
  100562:	c7 44 24 04 00 00 00 	movl   $0x0,0x4(%esp)
  100569:	00 
  10056a:	c7 04 24 07 00 00 00 	movl   $0x7,(%esp)
  100571:	e8 ab 24 00 00       	call   102a21 <kputcolor>
  100576:	e8 9e 12 00 00       	call   101819 <init_paging>
  10057b:	c7 04 24 e8 03 00 00 	movl   $0x3e8,(%esp)
  100582:	e8 d7 11 00 00       	call   10175e <init_timer>
  100587:	e8 a6 16 00 00       	call   101c32 <acpi_init>
  10058c:	e8 bb 19 00 00       	call   101f4c <ps2_init>
  100591:	e8 52 11 00 00       	call   1016e8 <init_keyboard>
  100596:	8b 45 f0             	mov    -0x10(%ebp),%eax
  100599:	c1 e8 0a             	shr    $0xa,%eax
  10059c:	89 44 24 0c          	mov    %eax,0xc(%esp)
  1005a0:	c7 44 24 08 40 b9 10 	movl   $0x10b940,0x8(%esp)
  1005a7:	00 
  1005a8:	c7 44 24 04 00 00 10 	movl   $0x100000,0x4(%esp)
  1005af:	00 
  1005b0:	c7 04 24 10 42 10 00 	movl   $0x104210,(%esp)
  1005b7:	e8 aa 20 00 00       	call   102666 <kprintf>
  1005bc:	e8 40 14 00 00       	call   101a01 <pmm_map>
  1005c1:	83 c4 24             	add    $0x24,%esp
  1005c4:	5b                   	pop    %ebx
  1005c5:	5d                   	pop    %ebp
  1005c6:	c3                   	ret    

001005c7 <elf_init>:
  1005c7:	55                   	push   %ebp
  1005c8:	89 e5                	mov    %esp,%ebp
  1005ca:	83 ec 28             	sub    $0x28,%esp
  1005cd:	8b 45 08             	mov    0x8(%ebp),%eax
  1005d0:	8b 40 08             	mov    0x8(%eax),%eax
  1005d3:	89 45 f0             	mov    %eax,-0x10(%ebp)
  1005d6:	8b 45 08             	mov    0x8(%ebp),%eax
  1005d9:	8b 50 0c             	mov    0xc(%eax),%edx
  1005dc:	89 d0                	mov    %edx,%eax
  1005de:	c1 e0 02             	shl    $0x2,%eax
  1005e1:	01 d0                	add    %edx,%eax
  1005e3:	c1 e0 03             	shl    $0x3,%eax
  1005e6:	89 c2                	mov    %eax,%edx
  1005e8:	8b 45 f0             	mov    -0x10(%ebp),%eax
  1005eb:	01 d0                	add    %edx,%eax
  1005ed:	8b 40 0c             	mov    0xc(%eax),%eax
  1005f0:	89 45 ec             	mov    %eax,-0x14(%ebp)
  1005f3:	c7 45 f4 00 00 00 00 	movl   $0x0,-0xc(%ebp)
  1005fa:	e9 c2 00 00 00       	jmp    1006c1 <elf_init+0xfa>
  1005ff:	8b 55 f4             	mov    -0xc(%ebp),%edx
  100602:	89 d0                	mov    %edx,%eax
  100604:	c1 e0 02             	shl    $0x2,%eax
  100607:	01 d0                	add    %edx,%eax
  100609:	c1 e0 03             	shl    $0x3,%eax
  10060c:	89 c2                	mov    %eax,%edx
  10060e:	8b 45 f0             	mov    -0x10(%ebp),%eax
  100611:	01 d0                	add    %edx,%eax
  100613:	8b 10                	mov    (%eax),%edx
  100615:	8b 45 ec             	mov    -0x14(%ebp),%eax
  100618:	01 d0                	add    %edx,%eax
  10061a:	89 45 e8             	mov    %eax,-0x18(%ebp)
  10061d:	c7 44 24 04 30 42 10 	movl   $0x104230,0x4(%esp)
  100624:	00 
  100625:	8b 45 e8             	mov    -0x18(%ebp),%eax
  100628:	89 04 24             	mov    %eax,(%esp)
  10062b:	e8 83 2b 00 00       	call   1031b3 <strcmp>
  100630:	85 c0                	test   %eax,%eax
  100632:	75 3a                	jne    10066e <elf_init+0xa7>
  100634:	8b 55 f4             	mov    -0xc(%ebp),%edx
  100637:	89 d0                	mov    %edx,%eax
  100639:	c1 e0 02             	shl    $0x2,%eax
  10063c:	01 d0                	add    %edx,%eax
  10063e:	c1 e0 03             	shl    $0x3,%eax
  100641:	89 c2                	mov    %eax,%edx
  100643:	8b 45 f0             	mov    -0x10(%ebp),%eax
  100646:	01 d0                	add    %edx,%eax
  100648:	8b 40 0c             	mov    0xc(%eax),%eax
  10064b:	a3 6c 70 10 00       	mov    %eax,0x10706c
  100650:	8b 55 f4             	mov    -0xc(%ebp),%edx
  100653:	89 d0                	mov    %edx,%eax
  100655:	c1 e0 02             	shl    $0x2,%eax
  100658:	01 d0                	add    %edx,%eax
  10065a:	c1 e0 03             	shl    $0x3,%eax
  10065d:	89 c2                	mov    %eax,%edx
  10065f:	8b 45 f0             	mov    -0x10(%ebp),%eax
  100662:	01 d0                	add    %edx,%eax
  100664:	8b 40 14             	mov    0x14(%eax),%eax
  100667:	a3 70 70 10 00       	mov    %eax,0x107070
  10066c:	eb 4f                	jmp    1006bd <elf_init+0xf6>
  10066e:	c7 44 24 04 38 42 10 	movl   $0x104238,0x4(%esp)
  100675:	00 
  100676:	8b 45 e8             	mov    -0x18(%ebp),%eax
  100679:	89 04 24             	mov    %eax,(%esp)
  10067c:	e8 32 2b 00 00       	call   1031b3 <strcmp>
  100681:	85 c0                	test   %eax,%eax
  100683:	75 38                	jne    1006bd <elf_init+0xf6>
  100685:	8b 55 f4             	mov    -0xc(%ebp),%edx
  100688:	89 d0                	mov    %edx,%eax
  10068a:	c1 e0 02             	shl    $0x2,%eax
  10068d:	01 d0                	add    %edx,%eax
  10068f:	c1 e0 03             	shl    $0x3,%eax
  100692:	89 c2                	mov    %eax,%edx
  100694:	8b 45 f0             	mov    -0x10(%ebp),%eax
  100697:	01 d0                	add    %edx,%eax
  100699:	8b 40 0c             	mov    0xc(%eax),%eax
  10069c:	a3 64 70 10 00       	mov    %eax,0x107064
  1006a1:	8b 55 f4             	mov    -0xc(%ebp),%edx
  1006a4:	89 d0                	mov    %edx,%eax
  1006a6:	c1 e0 02             	shl    $0x2,%eax
  1006a9:	01 d0                	add    %edx,%eax
  1006ab:	c1 e0 03             	shl    $0x3,%eax
  1006ae:	89 c2                	mov    %eax,%edx
  1006b0:	8b 45 f0             	mov    -0x10(%ebp),%eax
  1006b3:	01 d0                	add    %edx,%eax
  1006b5:	8b 40 14             	mov    0x14(%eax),%eax
  1006b8:	a3 68 70 10 00       	mov    %eax,0x107068
  1006bd:	83 45 f4 01          	addl   $0x1,-0xc(%ebp)
  1006c1:	8b 45 08             	mov    0x8(%ebp),%eax
  1006c4:	8b 00                	mov    (%eax),%eax
  1006c6:	3b 45 f4             	cmp    -0xc(%ebp),%eax
  1006c9:	0f 87 30 ff ff ff    	ja     1005ff <elf_init+0x38>
  1006cf:	c9                   	leave  
  1006d0:	c3                   	ret    

001006d1 <elf_lookup_symbol>:
  1006d1:	55                   	push   %ebp
  1006d2:	89 e5                	mov    %esp,%ebp
  1006d4:	83 ec 10             	sub    $0x10,%esp
  1006d7:	c7 45 fc 00 00 00 00 	movl   $0x0,-0x4(%ebp)
  1006de:	eb 77                	jmp    100757 <elf_lookup_symbol+0x86>
  1006e0:	a1 64 70 10 00       	mov    0x107064,%eax
  1006e5:	8b 55 fc             	mov    -0x4(%ebp),%edx
  1006e8:	c1 e2 04             	shl    $0x4,%edx
  1006eb:	01 d0                	add    %edx,%eax
  1006ed:	0f b6 40 0c          	movzbl 0xc(%eax),%eax
  1006f1:	0f b6 c0             	movzbl %al,%eax
  1006f4:	83 e0 0f             	and    $0xf,%eax
  1006f7:	83 f8 02             	cmp    $0x2,%eax
  1006fa:	74 02                	je     1006fe <elf_lookup_symbol+0x2d>
  1006fc:	eb 55                	jmp    100753 <elf_lookup_symbol+0x82>
  1006fe:	a1 64 70 10 00       	mov    0x107064,%eax
  100703:	8b 55 fc             	mov    -0x4(%ebp),%edx
  100706:	c1 e2 04             	shl    $0x4,%edx
  100709:	01 d0                	add    %edx,%eax
  10070b:	8b 40 04             	mov    0x4(%eax),%eax
  10070e:	3b 45 08             	cmp    0x8(%ebp),%eax
  100711:	77 40                	ja     100753 <elf_lookup_symbol+0x82>
  100713:	a1 64 70 10 00       	mov    0x107064,%eax
  100718:	8b 55 fc             	mov    -0x4(%ebp),%edx
  10071b:	c1 e2 04             	shl    $0x4,%edx
  10071e:	01 d0                	add    %edx,%eax
  100720:	8b 50 04             	mov    0x4(%eax),%edx
  100723:	a1 64 70 10 00       	mov    0x107064,%eax
  100728:	8b 4d fc             	mov    -0x4(%ebp),%ecx
  10072b:	c1 e1 04             	shl    $0x4,%ecx
  10072e:	01 c8                	add    %ecx,%eax
  100730:	8b 40 08             	mov    0x8(%eax),%eax
  100733:	01 d0                	add    %edx,%eax
  100735:	3b 45 08             	cmp    0x8(%ebp),%eax
  100738:	76 19                	jbe    100753 <elf_lookup_symbol+0x82>
  10073a:	8b 15 6c 70 10 00    	mov    0x10706c,%edx
  100740:	a1 64 70 10 00       	mov    0x107064,%eax
  100745:	8b 4d fc             	mov    -0x4(%ebp),%ecx
  100748:	c1 e1 04             	shl    $0x4,%ecx
  10074b:	01 c8                	add    %ecx,%eax
  10074d:	8b 00                	mov    (%eax),%eax
  10074f:	01 d0                	add    %edx,%eax
  100751:	eb 1a                	jmp    10076d <elf_lookup_symbol+0x9c>
  100753:	83 45 fc 01          	addl   $0x1,-0x4(%ebp)
  100757:	a1 68 70 10 00       	mov    0x107068,%eax
  10075c:	c1 e8 04             	shr    $0x4,%eax
  10075f:	3b 45 fc             	cmp    -0x4(%ebp),%eax
  100762:	0f 87 78 ff ff ff    	ja     1006e0 <elf_lookup_symbol+0xf>
  100768:	b8 00 00 00 00       	mov    $0x0,%eax
  10076d:	c9                   	leave  
  10076e:	c3                   	ret    

0010076f <elf_trace>:
  10076f:	55                   	push   %ebp
  100770:	89 e5                	mov    %esp,%ebp
  100772:	56                   	push   %esi
  100773:	53                   	push   %ebx
  100774:	83 ec 20             	sub    $0x20,%esp
  100777:	c7 04 24 40 42 10 00 	movl   $0x104240,(%esp)
  10077e:	e8 73 22 00 00       	call   1029f6 <kputs>
  100783:	89 e8                	mov    %ebp,%eax
  100785:	89 45 f4             	mov    %eax,-0xc(%ebp)
  100788:	8b 45 f4             	mov    -0xc(%ebp),%eax
  10078b:	83 c0 04             	add    $0x4,%eax
  10078e:	89 45 f0             	mov    %eax,-0x10(%ebp)
  100791:	8b 45 f4             	mov    -0xc(%ebp),%eax
  100794:	8b 00                	mov    (%eax),%eax
  100796:	89 45 f4             	mov    %eax,-0xc(%ebp)
  100799:	eb 64                	jmp    1007ff <elf_trace+0x90>
  10079b:	8b 45 f4             	mov    -0xc(%ebp),%eax
  10079e:	83 c0 04             	add    $0x4,%eax
  1007a1:	89 45 f0             	mov    %eax,-0x10(%ebp)
  1007a4:	8b 1d 5c 70 10 00    	mov    0x10705c,%ebx
  1007aa:	a1 58 70 10 00       	mov    0x107058,%eax
  1007af:	d1 e8                	shr    %eax
  1007b1:	89 c6                	mov    %eax,%esi
  1007b3:	c7 04 24 40 42 10 00 	movl   $0x104240,(%esp)
  1007ba:	e8 50 2a 00 00       	call   10320f <strlen>
  1007bf:	d1 e8                	shr    %eax
  1007c1:	29 c6                	sub    %eax,%esi
  1007c3:	89 f0                	mov    %esi,%eax
  1007c5:	89 5c 24 04          	mov    %ebx,0x4(%esp)
  1007c9:	89 04 24             	mov    %eax,(%esp)
  1007cc:	e8 97 22 00 00       	call   102a68 <set_pos>
  1007d1:	8b 45 f0             	mov    -0x10(%ebp),%eax
  1007d4:	8b 00                	mov    (%eax),%eax
  1007d6:	89 04 24             	mov    %eax,(%esp)
  1007d9:	e8 f3 fe ff ff       	call   1006d1 <elf_lookup_symbol>
  1007de:	8b 55 f0             	mov    -0x10(%ebp),%edx
  1007e1:	8b 12                	mov    (%edx),%edx
  1007e3:	89 44 24 08          	mov    %eax,0x8(%esp)
  1007e7:	89 54 24 04          	mov    %edx,0x4(%esp)
  1007eb:	c7 04 24 55 42 10 00 	movl   $0x104255,(%esp)
  1007f2:	e8 6f 1e 00 00       	call   102666 <kprintf>
  1007f7:	8b 45 f4             	mov    -0xc(%ebp),%eax
  1007fa:	8b 00                	mov    (%eax),%eax
  1007fc:	89 45 f4             	mov    %eax,-0xc(%ebp)
  1007ff:	83 7d f4 00          	cmpl   $0x0,-0xc(%ebp)
  100803:	75 96                	jne    10079b <elf_trace+0x2c>
  100805:	83 c4 20             	add    $0x20,%esp
  100808:	5b                   	pop    %ebx
  100809:	5e                   	pop    %esi
  10080a:	5d                   	pop    %ebp
  10080b:	c3                   	ret    

0010080c <lidt>:
  10080c:	55                   	push   %ebp
  10080d:	89 e5                	mov    %esp,%ebp
  10080f:	8b 45 0c             	mov    0xc(%ebp),%eax
  100812:	8b 55 08             	mov    0x8(%ebp),%edx
  100815:	83 ec 06             	sub    $0x6,%esp
  100818:	66 89 04 24          	mov    %ax,(%esp)
  10081c:	89 54 24 02          	mov    %edx,0x2(%esp)
  100820:	0f 01 1c 24          	lidtl  (%esp)
  100824:	83 c4 06             	add    $0x6,%esp
  100827:	5d                   	pop    %ebp
  100828:	c3                   	ret    

00100829 <idt_format_normal_entry>:
  100829:	55                   	push   %ebp
  10082a:	89 e5                	mov    %esp,%ebp
  10082c:	83 ec 08             	sub    $0x8,%esp
  10082f:	8b 55 10             	mov    0x10(%ebp),%edx
  100832:	8b 45 14             	mov    0x14(%ebp),%eax
  100835:	88 55 fc             	mov    %dl,-0x4(%ebp)
  100838:	88 45 f8             	mov    %al,-0x8(%ebp)
  10083b:	8b 45 0c             	mov    0xc(%ebp),%eax
  10083e:	89 c2                	mov    %eax,%edx
  100840:	8b 45 08             	mov    0x8(%ebp),%eax
  100843:	66 89 10             	mov    %dx,(%eax)
  100846:	8b 45 08             	mov    0x8(%ebp),%eax
  100849:	66 c7 40 02 08 00    	movw   $0x8,0x2(%eax)
  10084f:	8b 45 08             	mov    0x8(%ebp),%eax
  100852:	c6 40 04 00          	movb   $0x0,0x4(%eax)
  100856:	0f b6 45 f8          	movzbl -0x8(%ebp),%eax
  10085a:	c1 e0 05             	shl    $0x5,%eax
  10085d:	0a 45 fc             	or     -0x4(%ebp),%al
  100860:	83 c8 80             	or     $0xffffff80,%eax
  100863:	89 c2                	mov    %eax,%edx
  100865:	8b 45 08             	mov    0x8(%ebp),%eax
  100868:	88 50 05             	mov    %dl,0x5(%eax)
  10086b:	8b 45 0c             	mov    0xc(%ebp),%eax
  10086e:	c1 e8 10             	shr    $0x10,%eax
  100871:	89 c2                	mov    %eax,%edx
  100873:	8b 45 08             	mov    0x8(%ebp),%eax
  100876:	66 89 50 06          	mov    %dx,0x6(%eax)
  10087a:	c9                   	leave  
  10087b:	c3                   	ret    

0010087c <isr0CallBack>:
  10087c:	55                   	push   %ebp
  10087d:	89 e5                	mov    %esp,%ebp
  10087f:	83 ec 18             	sub    $0x18,%esp
  100882:	c7 04 24 61 42 10 00 	movl   $0x104261,(%esp)
  100889:	e8 ef 21 00 00       	call   102a7d <kpanic>
  10088e:	c9                   	leave  
  10088f:	c3                   	ret    

00100890 <isr1CallBack>:
  100890:	55                   	push   %ebp
  100891:	89 e5                	mov    %esp,%ebp
  100893:	83 ec 18             	sub    $0x18,%esp
  100896:	c7 04 24 6e 42 10 00 	movl   $0x10426e,(%esp)
  10089d:	e8 db 21 00 00       	call   102a7d <kpanic>
  1008a2:	c9                   	leave  
  1008a3:	c3                   	ret    

001008a4 <isr3CallBack>:
  1008a4:	55                   	push   %ebp
  1008a5:	89 e5                	mov    %esp,%ebp
  1008a7:	83 ec 18             	sub    $0x18,%esp
  1008aa:	c7 04 24 74 42 10 00 	movl   $0x104274,(%esp)
  1008b1:	e8 c7 21 00 00       	call   102a7d <kpanic>
  1008b6:	c9                   	leave  
  1008b7:	c3                   	ret    

001008b8 <isr4CallBack>:
  1008b8:	55                   	push   %ebp
  1008b9:	89 e5                	mov    %esp,%ebp
  1008bb:	83 ec 18             	sub    $0x18,%esp
  1008be:	c7 04 24 7f 42 10 00 	movl   $0x10427f,(%esp)
  1008c5:	e8 b3 21 00 00       	call   102a7d <kpanic>
  1008ca:	c9                   	leave  
  1008cb:	c3                   	ret    

001008cc <isr5CallBack>:
  1008cc:	55                   	push   %ebp
  1008cd:	89 e5                	mov    %esp,%ebp
  1008cf:	83 ec 18             	sub    $0x18,%esp
  1008d2:	c7 04 24 88 42 10 00 	movl   $0x104288,(%esp)
  1008d9:	e8 9f 21 00 00       	call   102a7d <kpanic>
  1008de:	c9                   	leave  
  1008df:	c3                   	ret    

001008e0 <isr6CallBack>:
  1008e0:	55                   	push   %ebp
  1008e1:	89 e5                	mov    %esp,%ebp
  1008e3:	83 ec 18             	sub    $0x18,%esp
  1008e6:	c7 04 24 9c 42 10 00 	movl   $0x10429c,(%esp)
  1008ed:	e8 8b 21 00 00       	call   102a7d <kpanic>
  1008f2:	c9                   	leave  
  1008f3:	c3                   	ret    

001008f4 <isr7CallBack>:
  1008f4:	55                   	push   %ebp
  1008f5:	89 e5                	mov    %esp,%ebp
  1008f7:	83 ec 18             	sub    $0x18,%esp
  1008fa:	c7 04 24 ab 42 10 00 	movl   $0x1042ab,(%esp)
  100901:	e8 77 21 00 00       	call   102a7d <kpanic>
  100906:	c9                   	leave  
  100907:	c3                   	ret    

00100908 <isr8CallBack>:
  100908:	55                   	push   %ebp
  100909:	89 e5                	mov    %esp,%ebp
  10090b:	83 ec 18             	sub    $0x18,%esp
  10090e:	c7 04 24 bf 42 10 00 	movl   $0x1042bf,(%esp)
  100915:	e8 63 21 00 00       	call   102a7d <kpanic>
  10091a:	c9                   	leave  
  10091b:	c3                   	ret    

0010091c <isr9CallBack>:
  10091c:	55                   	push   %ebp
  10091d:	89 e5                	mov    %esp,%ebp
  10091f:	83 ec 18             	sub    $0x18,%esp
  100922:	c7 04 24 cc 42 10 00 	movl   $0x1042cc,(%esp)
  100929:	e8 4f 21 00 00       	call   102a7d <kpanic>
  10092e:	c9                   	leave  
  10092f:	c3                   	ret    

00100930 <isr10CallBack>:
  100930:	55                   	push   %ebp
  100931:	89 e5                	mov    %esp,%ebp
  100933:	83 ec 18             	sub    $0x18,%esp
  100936:	c7 04 24 e8 42 10 00 	movl   $0x1042e8,(%esp)
  10093d:	e8 3b 21 00 00       	call   102a7d <kpanic>
  100942:	c9                   	leave  
  100943:	c3                   	ret    

00100944 <isr11CallBack>:
  100944:	55                   	push   %ebp
  100945:	89 e5                	mov    %esp,%ebp
  100947:	83 ec 18             	sub    $0x18,%esp
  10094a:	c7 04 24 f4 42 10 00 	movl   $0x1042f4,(%esp)
  100951:	e8 27 21 00 00       	call   102a7d <kpanic>
  100956:	c9                   	leave  
  100957:	c3                   	ret    

00100958 <isr12CallBack>:
  100958:	55                   	push   %ebp
  100959:	89 e5                	mov    %esp,%ebp
  10095b:	83 ec 18             	sub    $0x18,%esp
  10095e:	c7 04 24 08 43 10 00 	movl   $0x104308,(%esp)
  100965:	e8 13 21 00 00       	call   102a7d <kpanic>
  10096a:	c9                   	leave  
  10096b:	c3                   	ret    

0010096c <isr13CallBack>:
  10096c:	55                   	push   %ebp
  10096d:	89 e5                	mov    %esp,%ebp
  10096f:	83 ec 18             	sub    $0x18,%esp
  100972:	c7 04 24 1c 43 10 00 	movl   $0x10431c,(%esp)
  100979:	e8 ff 20 00 00       	call   102a7d <kpanic>
  10097e:	c9                   	leave  
  10097f:	c3                   	ret    

00100980 <isr14CallBack>:
  100980:	55                   	push   %ebp
  100981:	89 e5                	mov    %esp,%ebp
  100983:	83 ec 18             	sub    $0x18,%esp
  100986:	c7 04 24 1f 43 10 00 	movl   $0x10431f,(%esp)
  10098d:	e8 eb 20 00 00       	call   102a7d <kpanic>
  100992:	c9                   	leave  
  100993:	c3                   	ret    

00100994 <isr16CallBack>:
  100994:	55                   	push   %ebp
  100995:	89 e5                	mov    %esp,%ebp
  100997:	83 ec 18             	sub    $0x18,%esp
  10099a:	c7 04 24 2a 43 10 00 	movl   $0x10432a,(%esp)
  1009a1:	e8 d7 20 00 00       	call   102a7d <kpanic>
  1009a6:	c9                   	leave  
  1009a7:	c3                   	ret    

001009a8 <isr17CallBack>:
  1009a8:	55                   	push   %ebp
  1009a9:	89 e5                	mov    %esp,%ebp
  1009ab:	83 ec 18             	sub    $0x18,%esp
  1009ae:	c7 04 24 3f 43 10 00 	movl   $0x10433f,(%esp)
  1009b5:	e8 c3 20 00 00       	call   102a7d <kpanic>
  1009ba:	c9                   	leave  
  1009bb:	c3                   	ret    

001009bc <isr18CallBack>:
  1009bc:	55                   	push   %ebp
  1009bd:	89 e5                	mov    %esp,%ebp
  1009bf:	83 ec 18             	sub    $0x18,%esp
  1009c2:	c7 04 24 4f 43 10 00 	movl   $0x10434f,(%esp)
  1009c9:	e8 af 20 00 00       	call   102a7d <kpanic>
  1009ce:	c9                   	leave  
  1009cf:	c3                   	ret    

001009d0 <isr19CallBack>:
  1009d0:	55                   	push   %ebp
  1009d1:	89 e5                	mov    %esp,%ebp
  1009d3:	83 ec 18             	sub    $0x18,%esp
  1009d6:	c7 04 24 5d 43 10 00 	movl   $0x10435d,(%esp)
  1009dd:	e8 9b 20 00 00       	call   102a7d <kpanic>
  1009e2:	c9                   	leave  
  1009e3:	c3                   	ret    

001009e4 <idt_initialize>:
  1009e4:	55                   	push   %ebp
  1009e5:	89 e5                	mov    %esp,%ebp
  1009e7:	83 ec 18             	sub    $0x18,%esp
  1009ea:	c7 44 24 08 00 08 00 	movl   $0x800,0x8(%esp)
  1009f1:	00 
  1009f2:	c7 44 24 04 00 00 00 	movl   $0x0,0x4(%esp)
  1009f9:	00 
  1009fa:	c7 04 24 40 71 10 00 	movl   $0x107140,(%esp)
  100a01:	e8 66 25 00 00       	call   102f6c <memset>
  100a06:	c7 44 24 0c 00 00 00 	movl   $0x0,0xc(%esp)
  100a0d:	00 
  100a0e:	c7 44 24 08 0e 00 00 	movl   $0xe,0x8(%esp)
  100a15:	00 
  100a16:	c7 44 24 04 52 00 10 	movl   $0x100052,0x4(%esp)
  100a1d:	00 
  100a1e:	c7 04 24 40 71 10 00 	movl   $0x107140,(%esp)
  100a25:	e8 ff fd ff ff       	call   100829 <idt_format_normal_entry>
  100a2a:	c7 44 24 0c 00 00 00 	movl   $0x0,0xc(%esp)
  100a31:	00 
  100a32:	c7 44 24 08 0e 00 00 	movl   $0xe,0x8(%esp)
  100a39:	00 
  100a3a:	c7 44 24 04 5b 00 10 	movl   $0x10005b,0x4(%esp)
  100a41:	00 
  100a42:	c7 04 24 48 71 10 00 	movl   $0x107148,(%esp)
  100a49:	e8 db fd ff ff       	call   100829 <idt_format_normal_entry>
  100a4e:	c7 44 24 0c 00 00 00 	movl   $0x0,0xc(%esp)
  100a55:	00 
  100a56:	c7 44 24 08 0e 00 00 	movl   $0xe,0x8(%esp)
  100a5d:	00 
  100a5e:	c7 44 24 04 64 00 10 	movl   $0x100064,0x4(%esp)
  100a65:	00 
  100a66:	c7 04 24 50 71 10 00 	movl   $0x107150,(%esp)
  100a6d:	e8 b7 fd ff ff       	call   100829 <idt_format_normal_entry>
  100a72:	c7 44 24 0c 00 00 00 	movl   $0x0,0xc(%esp)
  100a79:	00 
  100a7a:	c7 44 24 08 0e 00 00 	movl   $0xe,0x8(%esp)
  100a81:	00 
  100a82:	c7 44 24 04 6d 00 10 	movl   $0x10006d,0x4(%esp)
  100a89:	00 
  100a8a:	c7 04 24 58 71 10 00 	movl   $0x107158,(%esp)
  100a91:	e8 93 fd ff ff       	call   100829 <idt_format_normal_entry>
  100a96:	c7 44 24 0c 00 00 00 	movl   $0x0,0xc(%esp)
  100a9d:	00 
  100a9e:	c7 44 24 08 0e 00 00 	movl   $0xe,0x8(%esp)
  100aa5:	00 
  100aa6:	c7 44 24 04 76 00 10 	movl   $0x100076,0x4(%esp)
  100aad:	00 
  100aae:	c7 04 24 60 71 10 00 	movl   $0x107160,(%esp)
  100ab5:	e8 6f fd ff ff       	call   100829 <idt_format_normal_entry>
  100aba:	c7 44 24 0c 00 00 00 	movl   $0x0,0xc(%esp)
  100ac1:	00 
  100ac2:	c7 44 24 08 0e 00 00 	movl   $0xe,0x8(%esp)
  100ac9:	00 
  100aca:	c7 44 24 04 7f 00 10 	movl   $0x10007f,0x4(%esp)
  100ad1:	00 
  100ad2:	c7 04 24 68 71 10 00 	movl   $0x107168,(%esp)
  100ad9:	e8 4b fd ff ff       	call   100829 <idt_format_normal_entry>
  100ade:	c7 44 24 0c 00 00 00 	movl   $0x0,0xc(%esp)
  100ae5:	00 
  100ae6:	c7 44 24 08 0e 00 00 	movl   $0xe,0x8(%esp)
  100aed:	00 
  100aee:	c7 44 24 04 88 00 10 	movl   $0x100088,0x4(%esp)
  100af5:	00 
  100af6:	c7 04 24 70 71 10 00 	movl   $0x107170,(%esp)
  100afd:	e8 27 fd ff ff       	call   100829 <idt_format_normal_entry>
  100b02:	c7 44 24 0c 00 00 00 	movl   $0x0,0xc(%esp)
  100b09:	00 
  100b0a:	c7 44 24 08 0e 00 00 	movl   $0xe,0x8(%esp)
  100b11:	00 
  100b12:	c7 44 24 04 91 00 10 	movl   $0x100091,0x4(%esp)
  100b19:	00 
  100b1a:	c7 04 24 78 71 10 00 	movl   $0x107178,(%esp)
  100b21:	e8 03 fd ff ff       	call   100829 <idt_format_normal_entry>
  100b26:	c7 44 24 0c 00 00 00 	movl   $0x0,0xc(%esp)
  100b2d:	00 
  100b2e:	c7 44 24 08 0e 00 00 	movl   $0xe,0x8(%esp)
  100b35:	00 
  100b36:	c7 44 24 04 9a 00 10 	movl   $0x10009a,0x4(%esp)
  100b3d:	00 
  100b3e:	c7 04 24 80 71 10 00 	movl   $0x107180,(%esp)
  100b45:	e8 df fc ff ff       	call   100829 <idt_format_normal_entry>
  100b4a:	c7 44 24 0c 00 00 00 	movl   $0x0,0xc(%esp)
  100b51:	00 
  100b52:	c7 44 24 08 0e 00 00 	movl   $0xe,0x8(%esp)
  100b59:	00 
  100b5a:	c7 44 24 04 a1 00 10 	movl   $0x1000a1,0x4(%esp)
  100b61:	00 
  100b62:	c7 04 24 88 71 10 00 	movl   $0x107188,(%esp)
  100b69:	e8 bb fc ff ff       	call   100829 <idt_format_normal_entry>
  100b6e:	c7 44 24 0c 00 00 00 	movl   $0x0,0xc(%esp)
  100b75:	00 
  100b76:	c7 44 24 08 0e 00 00 	movl   $0xe,0x8(%esp)
  100b7d:	00 
  100b7e:	c7 44 24 04 aa 00 10 	movl   $0x1000aa,0x4(%esp)
  100b85:	00 
  100b86:	c7 04 24 90 71 10 00 	movl   $0x107190,(%esp)
  100b8d:	e8 97 fc ff ff       	call   100829 <idt_format_normal_entry>
  100b92:	c7 44 24 0c 00 00 00 	movl   $0x0,0xc(%esp)
  100b99:	00 
  100b9a:	c7 44 24 08 0e 00 00 	movl   $0xe,0x8(%esp)
  100ba1:	00 
  100ba2:	c7 44 24 04 b1 00 10 	movl   $0x1000b1,0x4(%esp)
  100ba9:	00 
  100baa:	c7 04 24 98 71 10 00 	movl   $0x107198,(%esp)
  100bb1:	e8 73 fc ff ff       	call   100829 <idt_format_normal_entry>
  100bb6:	c7 44 24 0c 00 00 00 	movl   $0x0,0xc(%esp)
  100bbd:	00 
  100bbe:	c7 44 24 08 0e 00 00 	movl   $0xe,0x8(%esp)
  100bc5:	00 
  100bc6:	c7 44 24 04 b8 00 10 	movl   $0x1000b8,0x4(%esp)
  100bcd:	00 
  100bce:	c7 04 24 a0 71 10 00 	movl   $0x1071a0,(%esp)
  100bd5:	e8 4f fc ff ff       	call   100829 <idt_format_normal_entry>
  100bda:	c7 44 24 0c 00 00 00 	movl   $0x0,0xc(%esp)
  100be1:	00 
  100be2:	c7 44 24 08 0e 00 00 	movl   $0xe,0x8(%esp)
  100be9:	00 
  100bea:	c7 44 24 04 bf 00 10 	movl   $0x1000bf,0x4(%esp)
  100bf1:	00 
  100bf2:	c7 04 24 a8 71 10 00 	movl   $0x1071a8,(%esp)
  100bf9:	e8 2b fc ff ff       	call   100829 <idt_format_normal_entry>
  100bfe:	c7 44 24 0c 00 00 00 	movl   $0x0,0xc(%esp)
  100c05:	00 
  100c06:	c7 44 24 08 0e 00 00 	movl   $0xe,0x8(%esp)
  100c0d:	00 
  100c0e:	c7 44 24 04 c6 00 10 	movl   $0x1000c6,0x4(%esp)
  100c15:	00 
  100c16:	c7 04 24 b0 71 10 00 	movl   $0x1071b0,(%esp)
  100c1d:	e8 07 fc ff ff       	call   100829 <idt_format_normal_entry>
  100c22:	c7 44 24 0c 00 00 00 	movl   $0x0,0xc(%esp)
  100c29:	00 
  100c2a:	c7 44 24 08 0e 00 00 	movl   $0xe,0x8(%esp)
  100c31:	00 
  100c32:	c7 44 24 04 cd 00 10 	movl   $0x1000cd,0x4(%esp)
  100c39:	00 
  100c3a:	c7 04 24 b8 71 10 00 	movl   $0x1071b8,(%esp)
  100c41:	e8 e3 fb ff ff       	call   100829 <idt_format_normal_entry>
  100c46:	c7 44 24 0c 00 00 00 	movl   $0x0,0xc(%esp)
  100c4d:	00 
  100c4e:	c7 44 24 08 0e 00 00 	movl   $0xe,0x8(%esp)
  100c55:	00 
  100c56:	c7 44 24 04 d6 00 10 	movl   $0x1000d6,0x4(%esp)
  100c5d:	00 
  100c5e:	c7 04 24 c0 71 10 00 	movl   $0x1071c0,(%esp)
  100c65:	e8 bf fb ff ff       	call   100829 <idt_format_normal_entry>
  100c6a:	c7 44 24 0c 00 00 00 	movl   $0x0,0xc(%esp)
  100c71:	00 
  100c72:	c7 44 24 08 0e 00 00 	movl   $0xe,0x8(%esp)
  100c79:	00 
  100c7a:	c7 44 24 04 df 00 10 	movl   $0x1000df,0x4(%esp)
  100c81:	00 
  100c82:	c7 04 24 c8 71 10 00 	movl   $0x1071c8,(%esp)
  100c89:	e8 9b fb ff ff       	call   100829 <idt_format_normal_entry>
  100c8e:	c7 44 24 0c 00 00 00 	movl   $0x0,0xc(%esp)
  100c95:	00 
  100c96:	c7 44 24 08 0e 00 00 	movl   $0xe,0x8(%esp)
  100c9d:	00 
  100c9e:	c7 44 24 04 e6 00 10 	movl   $0x1000e6,0x4(%esp)
  100ca5:	00 
  100ca6:	c7 04 24 d0 71 10 00 	movl   $0x1071d0,(%esp)
  100cad:	e8 77 fb ff ff       	call   100829 <idt_format_normal_entry>
  100cb2:	c7 44 24 0c 00 00 00 	movl   $0x0,0xc(%esp)
  100cb9:	00 
  100cba:	c7 44 24 08 0e 00 00 	movl   $0xe,0x8(%esp)
  100cc1:	00 
  100cc2:	c7 44 24 04 ef 00 10 	movl   $0x1000ef,0x4(%esp)
  100cc9:	00 
  100cca:	c7 04 24 d8 71 10 00 	movl   $0x1071d8,(%esp)
  100cd1:	e8 53 fb ff ff       	call   100829 <idt_format_normal_entry>
  100cd6:	c7 44 24 0c 00 00 00 	movl   $0x0,0xc(%esp)
  100cdd:	00 
  100cde:	c7 44 24 08 0e 00 00 	movl   $0xe,0x8(%esp)
  100ce5:	00 
  100ce6:	c7 44 24 04 f8 00 10 	movl   $0x1000f8,0x4(%esp)
  100ced:	00 
  100cee:	c7 04 24 e0 71 10 00 	movl   $0x1071e0,(%esp)
  100cf5:	e8 2f fb ff ff       	call   100829 <idt_format_normal_entry>
  100cfa:	c7 44 24 0c 00 00 00 	movl   $0x0,0xc(%esp)
  100d01:	00 
  100d02:	c7 44 24 08 0e 00 00 	movl   $0xe,0x8(%esp)
  100d09:	00 
  100d0a:	c7 44 24 04 01 01 10 	movl   $0x100101,0x4(%esp)
  100d11:	00 
  100d12:	c7 04 24 e8 71 10 00 	movl   $0x1071e8,(%esp)
  100d19:	e8 0b fb ff ff       	call   100829 <idt_format_normal_entry>
  100d1e:	c7 44 24 0c 00 00 00 	movl   $0x0,0xc(%esp)
  100d25:	00 
  100d26:	c7 44 24 08 0e 00 00 	movl   $0xe,0x8(%esp)
  100d2d:	00 
  100d2e:	c7 44 24 04 0a 01 10 	movl   $0x10010a,0x4(%esp)
  100d35:	00 
  100d36:	c7 04 24 f0 71 10 00 	movl   $0x1071f0,(%esp)
  100d3d:	e8 e7 fa ff ff       	call   100829 <idt_format_normal_entry>
  100d42:	c7 44 24 0c 00 00 00 	movl   $0x0,0xc(%esp)
  100d49:	00 
  100d4a:	c7 44 24 08 0e 00 00 	movl   $0xe,0x8(%esp)
  100d51:	00 
  100d52:	c7 44 24 04 13 01 10 	movl   $0x100113,0x4(%esp)
  100d59:	00 
  100d5a:	c7 04 24 f8 71 10 00 	movl   $0x1071f8,(%esp)
  100d61:	e8 c3 fa ff ff       	call   100829 <idt_format_normal_entry>
  100d66:	c7 44 24 0c 00 00 00 	movl   $0x0,0xc(%esp)
  100d6d:	00 
  100d6e:	c7 44 24 08 0e 00 00 	movl   $0xe,0x8(%esp)
  100d75:	00 
  100d76:	c7 44 24 04 1c 01 10 	movl   $0x10011c,0x4(%esp)
  100d7d:	00 
  100d7e:	c7 04 24 00 72 10 00 	movl   $0x107200,(%esp)
  100d85:	e8 9f fa ff ff       	call   100829 <idt_format_normal_entry>
  100d8a:	c7 44 24 0c 00 00 00 	movl   $0x0,0xc(%esp)
  100d91:	00 
  100d92:	c7 44 24 08 0e 00 00 	movl   $0xe,0x8(%esp)
  100d99:	00 
  100d9a:	c7 44 24 04 25 01 10 	movl   $0x100125,0x4(%esp)
  100da1:	00 
  100da2:	c7 04 24 08 72 10 00 	movl   $0x107208,(%esp)
  100da9:	e8 7b fa ff ff       	call   100829 <idt_format_normal_entry>
  100dae:	c7 44 24 0c 00 00 00 	movl   $0x0,0xc(%esp)
  100db5:	00 
  100db6:	c7 44 24 08 0e 00 00 	movl   $0xe,0x8(%esp)
  100dbd:	00 
  100dbe:	c7 44 24 04 2e 01 10 	movl   $0x10012e,0x4(%esp)
  100dc5:	00 
  100dc6:	c7 04 24 10 72 10 00 	movl   $0x107210,(%esp)
  100dcd:	e8 57 fa ff ff       	call   100829 <idt_format_normal_entry>
  100dd2:	c7 44 24 0c 00 00 00 	movl   $0x0,0xc(%esp)
  100dd9:	00 
  100dda:	c7 44 24 08 0e 00 00 	movl   $0xe,0x8(%esp)
  100de1:	00 
  100de2:	c7 44 24 04 34 01 10 	movl   $0x100134,0x4(%esp)
  100de9:	00 
  100dea:	c7 04 24 18 72 10 00 	movl   $0x107218,(%esp)
  100df1:	e8 33 fa ff ff       	call   100829 <idt_format_normal_entry>
  100df6:	c7 44 24 0c 00 00 00 	movl   $0x0,0xc(%esp)
  100dfd:	00 
  100dfe:	c7 44 24 08 0e 00 00 	movl   $0xe,0x8(%esp)
  100e05:	00 
  100e06:	c7 44 24 04 3a 01 10 	movl   $0x10013a,0x4(%esp)
  100e0d:	00 
  100e0e:	c7 04 24 20 72 10 00 	movl   $0x107220,(%esp)
  100e15:	e8 0f fa ff ff       	call   100829 <idt_format_normal_entry>
  100e1a:	c7 44 24 0c 00 00 00 	movl   $0x0,0xc(%esp)
  100e21:	00 
  100e22:	c7 44 24 08 0e 00 00 	movl   $0xe,0x8(%esp)
  100e29:	00 
  100e2a:	c7 44 24 04 40 01 10 	movl   $0x100140,0x4(%esp)
  100e31:	00 
  100e32:	c7 04 24 28 72 10 00 	movl   $0x107228,(%esp)
  100e39:	e8 eb f9 ff ff       	call   100829 <idt_format_normal_entry>
  100e3e:	c7 44 24 0c 00 00 00 	movl   $0x0,0xc(%esp)
  100e45:	00 
  100e46:	c7 44 24 08 0e 00 00 	movl   $0xe,0x8(%esp)
  100e4d:	00 
  100e4e:	c7 44 24 04 46 01 10 	movl   $0x100146,0x4(%esp)
  100e55:	00 
  100e56:	c7 04 24 30 72 10 00 	movl   $0x107230,(%esp)
  100e5d:	e8 c7 f9 ff ff       	call   100829 <idt_format_normal_entry>
  100e62:	c7 44 24 0c 00 00 00 	movl   $0x0,0xc(%esp)
  100e69:	00 
  100e6a:	c7 44 24 08 0e 00 00 	movl   $0xe,0x8(%esp)
  100e71:	00 
  100e72:	c7 44 24 04 4a 01 10 	movl   $0x10014a,0x4(%esp)
  100e79:	00 
  100e7a:	c7 04 24 38 72 10 00 	movl   $0x107238,(%esp)
  100e81:	e8 a3 f9 ff ff       	call   100829 <idt_format_normal_entry>
  100e86:	c7 44 24 0c 00 00 00 	movl   $0x0,0xc(%esp)
  100e8d:	00 
  100e8e:	c7 44 24 08 0e 00 00 	movl   $0xe,0x8(%esp)
  100e95:	00 
  100e96:	c7 44 24 04 50 01 10 	movl   $0x100150,0x4(%esp)
  100e9d:	00 
  100e9e:	c7 04 24 40 72 10 00 	movl   $0x107240,(%esp)
  100ea5:	e8 7f f9 ff ff       	call   100829 <idt_format_normal_entry>
  100eaa:	c7 44 24 0c 00 00 00 	movl   $0x0,0xc(%esp)
  100eb1:	00 
  100eb2:	c7 44 24 08 0e 00 00 	movl   $0xe,0x8(%esp)
  100eb9:	00 
  100eba:	c7 44 24 04 50 01 10 	movl   $0x100150,0x4(%esp)
  100ec1:	00 
  100ec2:	c7 04 24 40 72 10 00 	movl   $0x107240,(%esp)
  100ec9:	e8 5b f9 ff ff       	call   100829 <idt_format_normal_entry>
  100ece:	c7 44 24 0c 00 00 00 	movl   $0x0,0xc(%esp)
  100ed5:	00 
  100ed6:	c7 44 24 08 0e 00 00 	movl   $0xe,0x8(%esp)
  100edd:	00 
  100ede:	c7 44 24 04 56 01 10 	movl   $0x100156,0x4(%esp)
  100ee5:	00 
  100ee6:	c7 04 24 48 72 10 00 	movl   $0x107248,(%esp)
  100eed:	e8 37 f9 ff ff       	call   100829 <idt_format_normal_entry>
  100ef2:	c7 44 24 0c 00 00 00 	movl   $0x0,0xc(%esp)
  100ef9:	00 
  100efa:	c7 44 24 08 0e 00 00 	movl   $0xe,0x8(%esp)
  100f01:	00 
  100f02:	c7 44 24 04 5c 01 10 	movl   $0x10015c,0x4(%esp)
  100f09:	00 
  100f0a:	c7 04 24 50 72 10 00 	movl   $0x107250,(%esp)
  100f11:	e8 13 f9 ff ff       	call   100829 <idt_format_normal_entry>
  100f16:	c7 44 24 0c 00 00 00 	movl   $0x0,0xc(%esp)
  100f1d:	00 
  100f1e:	c7 44 24 08 0e 00 00 	movl   $0xe,0x8(%esp)
  100f25:	00 
  100f26:	c7 44 24 04 62 01 10 	movl   $0x100162,0x4(%esp)
  100f2d:	00 
  100f2e:	c7 04 24 58 72 10 00 	movl   $0x107258,(%esp)
  100f35:	e8 ef f8 ff ff       	call   100829 <idt_format_normal_entry>
  100f3a:	c7 44 24 0c 00 00 00 	movl   $0x0,0xc(%esp)
  100f41:	00 
  100f42:	c7 44 24 08 0e 00 00 	movl   $0xe,0x8(%esp)
  100f49:	00 
  100f4a:	c7 44 24 04 68 01 10 	movl   $0x100168,0x4(%esp)
  100f51:	00 
  100f52:	c7 04 24 60 72 10 00 	movl   $0x107260,(%esp)
  100f59:	e8 cb f8 ff ff       	call   100829 <idt_format_normal_entry>
  100f5e:	c7 44 24 0c 00 00 00 	movl   $0x0,0xc(%esp)
  100f65:	00 
  100f66:	c7 44 24 08 0e 00 00 	movl   $0xe,0x8(%esp)
  100f6d:	00 
  100f6e:	c7 44 24 04 6e 01 10 	movl   $0x10016e,0x4(%esp)
  100f75:	00 
  100f76:	c7 04 24 68 72 10 00 	movl   $0x107268,(%esp)
  100f7d:	e8 a7 f8 ff ff       	call   100829 <idt_format_normal_entry>
  100f82:	c7 44 24 0c 00 00 00 	movl   $0x0,0xc(%esp)
  100f89:	00 
  100f8a:	c7 44 24 08 0e 00 00 	movl   $0xe,0x8(%esp)
  100f91:	00 
  100f92:	c7 44 24 04 74 01 10 	movl   $0x100174,0x4(%esp)
  100f99:	00 
  100f9a:	c7 04 24 70 72 10 00 	movl   $0x107270,(%esp)
  100fa1:	e8 83 f8 ff ff       	call   100829 <idt_format_normal_entry>
  100fa6:	c7 44 24 0c 00 00 00 	movl   $0x0,0xc(%esp)
  100fad:	00 
  100fae:	c7 44 24 08 0e 00 00 	movl   $0xe,0x8(%esp)
  100fb5:	00 
  100fb6:	c7 44 24 04 7a 01 10 	movl   $0x10017a,0x4(%esp)
  100fbd:	00 
  100fbe:	c7 04 24 78 72 10 00 	movl   $0x107278,(%esp)
  100fc5:	e8 5f f8 ff ff       	call   100829 <idt_format_normal_entry>
  100fca:	c7 44 24 0c 00 00 00 	movl   $0x0,0xc(%esp)
  100fd1:	00 
  100fd2:	c7 44 24 08 0e 00 00 	movl   $0xe,0x8(%esp)
  100fd9:	00 
  100fda:	c7 44 24 04 80 01 10 	movl   $0x100180,0x4(%esp)
  100fe1:	00 
  100fe2:	c7 04 24 80 72 10 00 	movl   $0x107280,(%esp)
  100fe9:	e8 3b f8 ff ff       	call   100829 <idt_format_normal_entry>
  100fee:	c7 44 24 0c 00 00 00 	movl   $0x0,0xc(%esp)
  100ff5:	00 
  100ff6:	c7 44 24 08 0e 00 00 	movl   $0xe,0x8(%esp)
  100ffd:	00 
  100ffe:	c7 44 24 04 86 01 10 	movl   $0x100186,0x4(%esp)
  101005:	00 
  101006:	c7 04 24 88 72 10 00 	movl   $0x107288,(%esp)
  10100d:	e8 17 f8 ff ff       	call   100829 <idt_format_normal_entry>
  101012:	c7 44 24 0c 00 00 00 	movl   $0x0,0xc(%esp)
  101019:	00 
  10101a:	c7 44 24 08 0e 00 00 	movl   $0xe,0x8(%esp)
  101021:	00 
  101022:	c7 44 24 04 8c 01 10 	movl   $0x10018c,0x4(%esp)
  101029:	00 
  10102a:	c7 04 24 90 72 10 00 	movl   $0x107290,(%esp)
  101031:	e8 f3 f7 ff ff       	call   100829 <idt_format_normal_entry>
  101036:	c7 44 24 0c 00 00 00 	movl   $0x0,0xc(%esp)
  10103d:	00 
  10103e:	c7 44 24 08 0e 00 00 	movl   $0xe,0x8(%esp)
  101045:	00 
  101046:	c7 44 24 04 92 01 10 	movl   $0x100192,0x4(%esp)
  10104d:	00 
  10104e:	c7 04 24 98 72 10 00 	movl   $0x107298,(%esp)
  101055:	e8 cf f7 ff ff       	call   100829 <idt_format_normal_entry>
  10105a:	c7 44 24 0c 00 00 00 	movl   $0x0,0xc(%esp)
  101061:	00 
  101062:	c7 44 24 08 0e 00 00 	movl   $0xe,0x8(%esp)
  101069:	00 
  10106a:	c7 44 24 04 98 01 10 	movl   $0x100198,0x4(%esp)
  101071:	00 
  101072:	c7 04 24 a0 72 10 00 	movl   $0x1072a0,(%esp)
  101079:	e8 ab f7 ff ff       	call   100829 <idt_format_normal_entry>
  10107e:	c7 44 24 0c 00 00 00 	movl   $0x0,0xc(%esp)
  101085:	00 
  101086:	c7 44 24 08 0e 00 00 	movl   $0xe,0x8(%esp)
  10108d:	00 
  10108e:	c7 44 24 04 9e 01 10 	movl   $0x10019e,0x4(%esp)
  101095:	00 
  101096:	c7 04 24 a8 72 10 00 	movl   $0x1072a8,(%esp)
  10109d:	e8 87 f7 ff ff       	call   100829 <idt_format_normal_entry>
  1010a2:	c7 44 24 0c 00 00 00 	movl   $0x0,0xc(%esp)
  1010a9:	00 
  1010aa:	c7 44 24 08 0e 00 00 	movl   $0xe,0x8(%esp)
  1010b1:	00 
  1010b2:	c7 44 24 04 a4 01 10 	movl   $0x1001a4,0x4(%esp)
  1010b9:	00 
  1010ba:	c7 04 24 b0 72 10 00 	movl   $0x1072b0,(%esp)
  1010c1:	e8 63 f7 ff ff       	call   100829 <idt_format_normal_entry>
  1010c6:	c7 44 24 0c 00 00 00 	movl   $0x0,0xc(%esp)
  1010cd:	00 
  1010ce:	c7 44 24 08 0e 00 00 	movl   $0xe,0x8(%esp)
  1010d5:	00 
  1010d6:	c7 44 24 04 aa 01 10 	movl   $0x1001aa,0x4(%esp)
  1010dd:	00 
  1010de:	c7 04 24 b8 72 10 00 	movl   $0x1072b8,(%esp)
  1010e5:	e8 3f f7 ff ff       	call   100829 <idt_format_normal_entry>
  1010ea:	b8 40 71 10 00       	mov    $0x107140,%eax
  1010ef:	c7 44 24 04 ff 07 00 	movl   $0x7ff,0x4(%esp)
  1010f6:	00 
  1010f7:	89 04 24             	mov    %eax,(%esp)
  1010fa:	e8 0d f7 ff ff       	call   10080c <lidt>
  1010ff:	c7 44 24 08 7c 08 10 	movl   $0x10087c,0x8(%esp)
  101106:	00 
  101107:	c7 44 24 04 00 00 00 	movl   $0x0,0x4(%esp)
  10110e:	00 
  10110f:	c7 04 24 00 00 00 00 	movl   $0x0,(%esp)
  101116:	e8 de 01 00 00       	call   1012f9 <set_handler>
  10111b:	c7 44 24 08 90 08 10 	movl   $0x100890,0x8(%esp)
  101122:	00 
  101123:	c7 44 24 04 01 00 00 	movl   $0x1,0x4(%esp)
  10112a:	00 
  10112b:	c7 04 24 00 00 00 00 	movl   $0x0,(%esp)
  101132:	e8 c2 01 00 00       	call   1012f9 <set_handler>
  101137:	c7 44 24 08 a4 08 10 	movl   $0x1008a4,0x8(%esp)
  10113e:	00 
  10113f:	c7 44 24 04 03 00 00 	movl   $0x3,0x4(%esp)
  101146:	00 
  101147:	c7 04 24 00 00 00 00 	movl   $0x0,(%esp)
  10114e:	e8 a6 01 00 00       	call   1012f9 <set_handler>
  101153:	c7 44 24 08 b8 08 10 	movl   $0x1008b8,0x8(%esp)
  10115a:	00 
  10115b:	c7 44 24 04 04 00 00 	movl   $0x4,0x4(%esp)
  101162:	00 
  101163:	c7 04 24 00 00 00 00 	movl   $0x0,(%esp)
  10116a:	e8 8a 01 00 00       	call   1012f9 <set_handler>
  10116f:	c7 44 24 08 cc 08 10 	movl   $0x1008cc,0x8(%esp)
  101176:	00 
  101177:	c7 44 24 04 05 00 00 	movl   $0x5,0x4(%esp)
  10117e:	00 
  10117f:	c7 04 24 00 00 00 00 	movl   $0x0,(%esp)
  101186:	e8 6e 01 00 00       	call   1012f9 <set_handler>
  10118b:	c7 44 24 08 e0 08 10 	movl   $0x1008e0,0x8(%esp)
  101192:	00 
  101193:	c7 44 24 04 06 00 00 	movl   $0x6,0x4(%esp)
  10119a:	00 
  10119b:	c7 04 24 00 00 00 00 	movl   $0x0,(%esp)
  1011a2:	e8 52 01 00 00       	call   1012f9 <set_handler>
  1011a7:	c7 44 24 08 f4 08 10 	movl   $0x1008f4,0x8(%esp)
  1011ae:	00 
  1011af:	c7 44 24 04 07 00 00 	movl   $0x7,0x4(%esp)
  1011b6:	00 
  1011b7:	c7 04 24 00 00 00 00 	movl   $0x0,(%esp)
  1011be:	e8 36 01 00 00       	call   1012f9 <set_handler>
  1011c3:	c7 44 24 08 08 09 10 	movl   $0x100908,0x8(%esp)
  1011ca:	00 
  1011cb:	c7 44 24 04 08 00 00 	movl   $0x8,0x4(%esp)
  1011d2:	00 
  1011d3:	c7 04 24 00 00 00 00 	movl   $0x0,(%esp)
  1011da:	e8 1a 01 00 00       	call   1012f9 <set_handler>
  1011df:	c7 44 24 08 1c 09 10 	movl   $0x10091c,0x8(%esp)
  1011e6:	00 
  1011e7:	c7 44 24 04 09 00 00 	movl   $0x9,0x4(%esp)
  1011ee:	00 
  1011ef:	c7 04 24 00 00 00 00 	movl   $0x0,(%esp)
  1011f6:	e8 fe 00 00 00       	call   1012f9 <set_handler>
  1011fb:	c7 44 24 08 30 09 10 	movl   $0x100930,0x8(%esp)
  101202:	00 
  101203:	c7 44 24 04 0a 00 00 	movl   $0xa,0x4(%esp)
  10120a:	00 
  10120b:	c7 04 24 00 00 00 00 	movl   $0x0,(%esp)
  101212:	e8 e2 00 00 00       	call   1012f9 <set_handler>
  101217:	c7 44 24 08 44 09 10 	movl   $0x100944,0x8(%esp)
  10121e:	00 
  10121f:	c7 44 24 04 0b 00 00 	movl   $0xb,0x4(%esp)
  101226:	00 
  101227:	c7 04 24 00 00 00 00 	movl   $0x0,(%esp)
  10122e:	e8 c6 00 00 00       	call   1012f9 <set_handler>
  101233:	c7 44 24 08 58 09 10 	movl   $0x100958,0x8(%esp)
  10123a:	00 
  10123b:	c7 44 24 04 0c 00 00 	movl   $0xc,0x4(%esp)
  101242:	00 
  101243:	c7 04 24 00 00 00 00 	movl   $0x0,(%esp)
  10124a:	e8 aa 00 00 00       	call   1012f9 <set_handler>
  10124f:	c7 44 24 08 6c 09 10 	movl   $0x10096c,0x8(%esp)
  101256:	00 
  101257:	c7 44 24 04 0d 00 00 	movl   $0xd,0x4(%esp)
  10125e:	00 
  10125f:	c7 04 24 00 00 00 00 	movl   $0x0,(%esp)
  101266:	e8 8e 00 00 00       	call   1012f9 <set_handler>
  10126b:	c7 44 24 08 80 09 10 	movl   $0x100980,0x8(%esp)
  101272:	00 
  101273:	c7 44 24 04 0e 00 00 	movl   $0xe,0x4(%esp)
  10127a:	00 
  10127b:	c7 04 24 00 00 00 00 	movl   $0x0,(%esp)
  101282:	e8 72 00 00 00       	call   1012f9 <set_handler>
  101287:	c7 44 24 08 94 09 10 	movl   $0x100994,0x8(%esp)
  10128e:	00 
  10128f:	c7 44 24 04 10 00 00 	movl   $0x10,0x4(%esp)
  101296:	00 
  101297:	c7 04 24 00 00 00 00 	movl   $0x0,(%esp)
  10129e:	e8 56 00 00 00       	call   1012f9 <set_handler>
  1012a3:	c7 44 24 08 a8 09 10 	movl   $0x1009a8,0x8(%esp)
  1012aa:	00 
  1012ab:	c7 44 24 04 11 00 00 	movl   $0x11,0x4(%esp)
  1012b2:	00 
  1012b3:	c7 04 24 00 00 00 00 	movl   $0x0,(%esp)
  1012ba:	e8 3a 00 00 00       	call   1012f9 <set_handler>
  1012bf:	c7 44 24 08 bc 09 10 	movl   $0x1009bc,0x8(%esp)
  1012c6:	00 
  1012c7:	c7 44 24 04 12 00 00 	movl   $0x12,0x4(%esp)
  1012ce:	00 
  1012cf:	c7 04 24 00 00 00 00 	movl   $0x0,(%esp)
  1012d6:	e8 1e 00 00 00       	call   1012f9 <set_handler>
  1012db:	c7 44 24 08 d0 09 10 	movl   $0x1009d0,0x8(%esp)
  1012e2:	00 
  1012e3:	c7 44 24 04 13 00 00 	movl   $0x13,0x4(%esp)
  1012ea:	00 
  1012eb:	c7 04 24 00 00 00 00 	movl   $0x0,(%esp)
  1012f2:	e8 02 00 00 00       	call   1012f9 <set_handler>
  1012f7:	c9                   	leave  
  1012f8:	c3                   	ret    

001012f9 <set_handler>:
  1012f9:	55                   	push   %ebp
  1012fa:	89 e5                	mov    %esp,%ebp
  1012fc:	8b 45 08             	mov    0x8(%ebp),%eax
  1012ff:	85 c0                	test   %eax,%eax
  101301:	74 07                	je     10130a <set_handler+0x11>
  101303:	83 f8 01             	cmp    $0x1,%eax
  101306:	74 11                	je     101319 <set_handler+0x20>
  101308:	eb 1e                	jmp    101328 <set_handler+0x2f>
  10130a:	8b 45 0c             	mov    0xc(%ebp),%eax
  10130d:	8b 55 10             	mov    0x10(%ebp),%edx
  101310:	89 14 85 80 70 10 00 	mov    %edx,0x107080(,%eax,4)
  101317:	eb 1d                	jmp    101336 <set_handler+0x3d>
  101319:	8b 45 0c             	mov    0xc(%ebp),%eax
  10131c:	8b 55 10             	mov    0x10(%ebp),%edx
  10131f:	89 14 85 00 71 10 00 	mov    %edx,0x107100(,%eax,4)
  101326:	eb 0e                	jmp    101336 <set_handler+0x3d>
  101328:	8b 45 0c             	mov    0xc(%ebp),%eax
  10132b:	8b 55 10             	mov    0x10(%ebp),%edx
  10132e:	89 14 85 80 70 10 00 	mov    %edx,0x107080(,%eax,4)
  101335:	90                   	nop
  101336:	5d                   	pop    %ebp
  101337:	c3                   	ret    

00101338 <isr_handler>:
  101338:	55                   	push   %ebp
  101339:	89 e5                	mov    %esp,%ebp
  10133b:	83 ec 28             	sub    $0x28,%esp
  10133e:	8b 45 08             	mov    0x8(%ebp),%eax
  101341:	8b 40 30             	mov    0x30(%eax),%eax
  101344:	83 e8 20             	sub    $0x20,%eax
  101347:	88 45 f7             	mov    %al,-0x9(%ebp)
  10134a:	0f b6 45 f7          	movzbl -0x9(%ebp),%eax
  10134e:	8b 04 85 80 70 10 00 	mov    0x107080(,%eax,4),%eax
  101355:	85 c0                	test   %eax,%eax
  101357:	74 13                	je     10136c <isr_handler+0x34>
  101359:	0f b6 45 f7          	movzbl -0x9(%ebp),%eax
  10135d:	8b 04 85 80 70 10 00 	mov    0x107080(,%eax,4),%eax
  101364:	8b 55 08             	mov    0x8(%ebp),%edx
  101367:	89 14 24             	mov    %edx,(%esp)
  10136a:	ff d0                	call   *%eax
  10136c:	e8 b1 01 00 00       	call   101522 <pic_eoi_master>
  101371:	e8 c8 01 00 00       	call   10153e <pic_eoi_slave>
  101376:	c9                   	leave  
  101377:	c3                   	ret    

00101378 <irq_handler>:
  101378:	55                   	push   %ebp
  101379:	89 e5                	mov    %esp,%ebp
  10137b:	83 ec 28             	sub    $0x28,%esp
  10137e:	8b 45 08             	mov    0x8(%ebp),%eax
  101381:	8b 40 30             	mov    0x30(%eax),%eax
  101384:	83 e8 20             	sub    $0x20,%eax
  101387:	88 45 f7             	mov    %al,-0x9(%ebp)
  10138a:	80 7d f7 07          	cmpb   $0x7,-0x9(%ebp)
  10138e:	75 13                	jne    1013a3 <irq_handler+0x2b>
  101390:	e8 35 01 00 00       	call   1014ca <pic_read_isr>
  101395:	0f b7 c0             	movzwl %ax,%eax
  101398:	25 80 00 00 00       	and    $0x80,%eax
  10139d:	85 c0                	test   %eax,%eax
  10139f:	75 02                	jne    1013a3 <irq_handler+0x2b>
  1013a1:	eb 4c                	jmp    1013ef <irq_handler+0x77>
  1013a3:	80 7d f7 0f          	cmpb   $0xf,-0x9(%ebp)
  1013a7:	75 0c                	jne    1013b5 <irq_handler+0x3d>
  1013a9:	e8 1c 01 00 00       	call   1014ca <pic_read_isr>
  1013ae:	66 85 c0             	test   %ax,%ax
  1013b1:	78 02                	js     1013b5 <irq_handler+0x3d>
  1013b3:	eb 3a                	jmp    1013ef <irq_handler+0x77>
  1013b5:	0f b6 45 f7          	movzbl -0x9(%ebp),%eax
  1013b9:	8b 04 85 00 71 10 00 	mov    0x107100(,%eax,4),%eax
  1013c0:	85 c0                	test   %eax,%eax
  1013c2:	74 15                	je     1013d9 <irq_handler+0x61>
  1013c4:	0f b6 45 f7          	movzbl -0x9(%ebp),%eax
  1013c8:	8b 04 85 00 71 10 00 	mov    0x107100(,%eax,4),%eax
  1013cf:	8b 55 08             	mov    0x8(%ebp),%edx
  1013d2:	89 14 24             	mov    %edx,(%esp)
  1013d5:	ff d0                	call   *%eax
  1013d7:	eb 0c                	jmp    1013e5 <irq_handler+0x6d>
  1013d9:	c7 04 24 77 43 10 00 	movl   $0x104377,(%esp)
  1013e0:	e8 98 16 00 00       	call   102a7d <kpanic>
  1013e5:	e8 38 01 00 00       	call   101522 <pic_eoi_master>
  1013ea:	e8 4f 01 00 00       	call   10153e <pic_eoi_slave>
  1013ef:	c9                   	leave  
  1013f0:	c3                   	ret    

001013f1 <interrupt_handler>:
  1013f1:	55                   	push   %ebp
  1013f2:	89 e5                	mov    %esp,%ebp
  1013f4:	83 ec 18             	sub    $0x18,%esp
  1013f7:	8b 45 08             	mov    0x8(%ebp),%eax
  1013fa:	8b 40 30             	mov    0x30(%eax),%eax
  1013fd:	83 f8 1f             	cmp    $0x1f,%eax
  101400:	77 0d                	ja     10140f <interrupt_handler+0x1e>
  101402:	8b 45 08             	mov    0x8(%ebp),%eax
  101405:	89 04 24             	mov    %eax,(%esp)
  101408:	e8 2b ff ff ff       	call   101338 <isr_handler>
  10140d:	eb 26                	jmp    101435 <interrupt_handler+0x44>
  10140f:	8b 45 08             	mov    0x8(%ebp),%eax
  101412:	8b 40 30             	mov    0x30(%eax),%eax
  101415:	83 f8 1f             	cmp    $0x1f,%eax
  101418:	76 1b                	jbe    101435 <interrupt_handler+0x44>
  10141a:	8b 45 08             	mov    0x8(%ebp),%eax
  10141d:	8b 40 30             	mov    0x30(%eax),%eax
  101420:	83 f8 30             	cmp    $0x30,%eax
  101423:	77 10                	ja     101435 <interrupt_handler+0x44>
  101425:	8b 45 08             	mov    0x8(%ebp),%eax
  101428:	89 04 24             	mov    %eax,(%esp)
  10142b:	e8 48 ff ff ff       	call   101378 <irq_handler>
  101430:	e8 ed 00 00 00       	call   101522 <pic_eoi_master>
  101435:	c9                   	leave  
  101436:	c3                   	ret    

00101437 <outb>:
  101437:	55                   	push   %ebp
  101438:	89 e5                	mov    %esp,%ebp
  10143a:	83 ec 08             	sub    $0x8,%esp
  10143d:	8b 55 08             	mov    0x8(%ebp),%edx
  101440:	8b 45 0c             	mov    0xc(%ebp),%eax
  101443:	66 89 55 fc          	mov    %dx,-0x4(%ebp)
  101447:	88 45 f8             	mov    %al,-0x8(%ebp)
  10144a:	0f b6 45 f8          	movzbl -0x8(%ebp),%eax
  10144e:	0f b7 55 fc          	movzwl -0x4(%ebp),%edx
  101452:	ee                   	out    %al,(%dx)
  101453:	c9                   	leave  
  101454:	c3                   	ret    

00101455 <inb>:
  101455:	55                   	push   %ebp
  101456:	89 e5                	mov    %esp,%ebp
  101458:	83 ec 14             	sub    $0x14,%esp
  10145b:	8b 45 08             	mov    0x8(%ebp),%eax
  10145e:	66 89 45 ec          	mov    %ax,-0x14(%ebp)
  101462:	0f b7 45 ec          	movzwl -0x14(%ebp),%eax
  101466:	89 c2                	mov    %eax,%edx
  101468:	ec                   	in     (%dx),%al
  101469:	88 45 ff             	mov    %al,-0x1(%ebp)
  10146c:	0f b6 45 ff          	movzbl -0x1(%ebp),%eax
  101470:	c9                   	leave  
  101471:	c3                   	ret    

00101472 <pic_read_irr>:
  101472:	55                   	push   %ebp
  101473:	89 e5                	mov    %esp,%ebp
  101475:	53                   	push   %ebx
  101476:	83 ec 08             	sub    $0x8,%esp
  101479:	c7 44 24 04 0a 00 00 	movl   $0xa,0x4(%esp)
  101480:	00 
  101481:	c7 04 24 20 00 00 00 	movl   $0x20,(%esp)
  101488:	e8 aa ff ff ff       	call   101437 <outb>
  10148d:	c7 44 24 04 0a 00 00 	movl   $0xa,0x4(%esp)
  101494:	00 
  101495:	c7 04 24 a0 00 00 00 	movl   $0xa0,(%esp)
  10149c:	e8 96 ff ff ff       	call   101437 <outb>
  1014a1:	c7 04 24 20 00 00 00 	movl   $0x20,(%esp)
  1014a8:	e8 a8 ff ff ff       	call   101455 <inb>
  1014ad:	0f b6 d8             	movzbl %al,%ebx
  1014b0:	c7 04 24 a0 00 00 00 	movl   $0xa0,(%esp)
  1014b7:	e8 99 ff ff ff       	call   101455 <inb>
  1014bc:	0f b6 c0             	movzbl %al,%eax
  1014bf:	c1 e0 08             	shl    $0x8,%eax
  1014c2:	09 d8                	or     %ebx,%eax
  1014c4:	83 c4 08             	add    $0x8,%esp
  1014c7:	5b                   	pop    %ebx
  1014c8:	5d                   	pop    %ebp
  1014c9:	c3                   	ret    

001014ca <pic_read_isr>:
  1014ca:	55                   	push   %ebp
  1014cb:	89 e5                	mov    %esp,%ebp
  1014cd:	53                   	push   %ebx
  1014ce:	83 ec 08             	sub    $0x8,%esp
  1014d1:	c7 44 24 04 0b 00 00 	movl   $0xb,0x4(%esp)
  1014d8:	00 
  1014d9:	c7 04 24 20 00 00 00 	movl   $0x20,(%esp)
  1014e0:	e8 52 ff ff ff       	call   101437 <outb>
  1014e5:	c7 44 24 04 0b 00 00 	movl   $0xb,0x4(%esp)
  1014ec:	00 
  1014ed:	c7 04 24 a0 00 00 00 	movl   $0xa0,(%esp)
  1014f4:	e8 3e ff ff ff       	call   101437 <outb>
  1014f9:	c7 04 24 20 00 00 00 	movl   $0x20,(%esp)
  101500:	e8 50 ff ff ff       	call   101455 <inb>
  101505:	0f b6 d8             	movzbl %al,%ebx
  101508:	c7 04 24 a0 00 00 00 	movl   $0xa0,(%esp)
  10150f:	e8 41 ff ff ff       	call   101455 <inb>
  101514:	0f b6 c0             	movzbl %al,%eax
  101517:	c1 e0 08             	shl    $0x8,%eax
  10151a:	09 d8                	or     %ebx,%eax
  10151c:	83 c4 08             	add    $0x8,%esp
  10151f:	5b                   	pop    %ebx
  101520:	5d                   	pop    %ebp
  101521:	c3                   	ret    

00101522 <pic_eoi_master>:
  101522:	55                   	push   %ebp
  101523:	89 e5                	mov    %esp,%ebp
  101525:	83 ec 08             	sub    $0x8,%esp
  101528:	c7 44 24 04 20 00 00 	movl   $0x20,0x4(%esp)
  10152f:	00 
  101530:	c7 04 24 20 00 00 00 	movl   $0x20,(%esp)
  101537:	e8 fb fe ff ff       	call   101437 <outb>
  10153c:	c9                   	leave  
  10153d:	c3                   	ret    

0010153e <pic_eoi_slave>:
  10153e:	55                   	push   %ebp
  10153f:	89 e5                	mov    %esp,%ebp
  101541:	83 ec 08             	sub    $0x8,%esp
  101544:	c7 44 24 04 20 00 00 	movl   $0x20,0x4(%esp)
  10154b:	00 
  10154c:	c7 04 24 a0 00 00 00 	movl   $0xa0,(%esp)
  101553:	e8 df fe ff ff       	call   101437 <outb>
  101558:	c9                   	leave  
  101559:	c3                   	ret    

0010155a <pic_initialize>:
  10155a:	55                   	push   %ebp
  10155b:	89 e5                	mov    %esp,%ebp
  10155d:	83 ec 18             	sub    $0x18,%esp
  101560:	c6 45 ff 20          	movb   $0x20,-0x1(%ebp)
  101564:	c6 45 fe ff          	movb   $0xff,-0x2(%ebp)
  101568:	c6 45 fd ff          	movb   $0xff,-0x3(%ebp)
  10156c:	c7 44 24 04 11 00 00 	movl   $0x11,0x4(%esp)
  101573:	00 
  101574:	c7 04 24 20 00 00 00 	movl   $0x20,(%esp)
  10157b:	e8 b7 fe ff ff       	call   101437 <outb>
  101580:	c7 44 24 04 11 00 00 	movl   $0x11,0x4(%esp)
  101587:	00 
  101588:	c7 04 24 a0 00 00 00 	movl   $0xa0,(%esp)
  10158f:	e8 a3 fe ff ff       	call   101437 <outb>
  101594:	0f b6 45 ff          	movzbl -0x1(%ebp),%eax
  101598:	89 44 24 04          	mov    %eax,0x4(%esp)
  10159c:	c7 04 24 21 00 00 00 	movl   $0x21,(%esp)
  1015a3:	e8 8f fe ff ff       	call   101437 <outb>
  1015a8:	0f b6 45 ff          	movzbl -0x1(%ebp),%eax
  1015ac:	83 c0 08             	add    $0x8,%eax
  1015af:	0f b6 c0             	movzbl %al,%eax
  1015b2:	89 44 24 04          	mov    %eax,0x4(%esp)
  1015b6:	c7 04 24 a1 00 00 00 	movl   $0xa1,(%esp)
  1015bd:	e8 75 fe ff ff       	call   101437 <outb>
  1015c2:	c7 44 24 04 04 00 00 	movl   $0x4,0x4(%esp)
  1015c9:	00 
  1015ca:	c7 04 24 21 00 00 00 	movl   $0x21,(%esp)
  1015d1:	e8 61 fe ff ff       	call   101437 <outb>
  1015d6:	c7 44 24 04 02 00 00 	movl   $0x2,0x4(%esp)
  1015dd:	00 
  1015de:	c7 04 24 a1 00 00 00 	movl   $0xa1,(%esp)
  1015e5:	e8 4d fe ff ff       	call   101437 <outb>
  1015ea:	c7 44 24 04 01 00 00 	movl   $0x1,0x4(%esp)
  1015f1:	00 
  1015f2:	c7 04 24 21 00 00 00 	movl   $0x21,(%esp)
  1015f9:	e8 39 fe ff ff       	call   101437 <outb>
  1015fe:	c7 44 24 04 01 00 00 	movl   $0x1,0x4(%esp)
  101605:	00 
  101606:	c7 04 24 a1 00 00 00 	movl   $0xa1,(%esp)
  10160d:	e8 25 fe ff ff       	call   101437 <outb>
  101612:	0f b6 45 fe          	movzbl -0x2(%ebp),%eax
  101616:	89 44 24 04          	mov    %eax,0x4(%esp)
  10161a:	c7 04 24 21 00 00 00 	movl   $0x21,(%esp)
  101621:	e8 11 fe ff ff       	call   101437 <outb>
  101626:	0f b6 45 fd          	movzbl -0x3(%ebp),%eax
  10162a:	89 44 24 04          	mov    %eax,0x4(%esp)
  10162e:	c7 04 24 a1 00 00 00 	movl   $0xa1,(%esp)
  101635:	e8 fd fd ff ff       	call   101437 <outb>
  10163a:	e8 e3 fe ff ff       	call   101522 <pic_eoi_master>
  10163f:	e8 fa fe ff ff       	call   10153e <pic_eoi_slave>
  101644:	c9                   	leave  
  101645:	c3                   	ret    

00101646 <outb>:
  101646:	55                   	push   %ebp
  101647:	89 e5                	mov    %esp,%ebp
  101649:	83 ec 08             	sub    $0x8,%esp
  10164c:	8b 55 08             	mov    0x8(%ebp),%edx
  10164f:	8b 45 0c             	mov    0xc(%ebp),%eax
  101652:	66 89 55 fc          	mov    %dx,-0x4(%ebp)
  101656:	88 45 f8             	mov    %al,-0x8(%ebp)
  101659:	0f b6 45 f8          	movzbl -0x8(%ebp),%eax
  10165d:	0f b7 55 fc          	movzwl -0x4(%ebp),%edx
  101661:	ee                   	out    %al,(%dx)
  101662:	c9                   	leave  
  101663:	c3                   	ret    

00101664 <inb>:
  101664:	55                   	push   %ebp
  101665:	89 e5                	mov    %esp,%ebp
  101667:	83 ec 14             	sub    $0x14,%esp
  10166a:	8b 45 08             	mov    0x8(%ebp),%eax
  10166d:	66 89 45 ec          	mov    %ax,-0x14(%ebp)
  101671:	0f b7 45 ec          	movzwl -0x14(%ebp),%eax
  101675:	89 c2                	mov    %eax,%edx
  101677:	ec                   	in     (%dx),%al
  101678:	88 45 ff             	mov    %al,-0x1(%ebp)
  10167b:	0f b6 45 ff          	movzbl -0x1(%ebp),%eax
  10167f:	c9                   	leave  
  101680:	c3                   	ret    

00101681 <key_callback>:
  101681:	55                   	push   %ebp
  101682:	89 e5                	mov    %esp,%ebp
  101684:	83 ec 18             	sub    $0x18,%esp
  101687:	0f b6 05 0e 70 10 00 	movzbl 0x10700e,%eax
  10168e:	84 c0                	test   %al,%al
  101690:	74 54                	je     1016e6 <key_callback+0x65>
  101692:	e8 78 0e 00 00       	call   10250f <ps2_wait>
  101697:	0f b6 05 0c 70 10 00 	movzbl 0x10700c,%eax
  10169e:	a2 20 70 10 00       	mov    %al,0x107020
  1016a3:	c7 04 24 60 00 00 00 	movl   $0x60,(%esp)
  1016aa:	e8 b5 ff ff ff       	call   101664 <inb>
  1016af:	a2 0c 70 10 00       	mov    %al,0x10700c
  1016b4:	0f b6 05 0c 70 10 00 	movzbl 0x10700c,%eax
  1016bb:	84 c0                	test   %al,%al
  1016bd:	78 27                	js     1016e6 <key_callback+0x65>
  1016bf:	0f b6 05 20 70 10 00 	movzbl 0x107020,%eax
  1016c6:	3c f0                	cmp    $0xf0,%al
  1016c8:	75 1c                	jne    1016e6 <key_callback+0x65>
  1016ca:	0f b6 05 0c 70 10 00 	movzbl 0x10700c,%eax
  1016d1:	0f b6 c0             	movzbl %al,%eax
  1016d4:	0f b6 80 40 60 10 00 	movzbl 0x106040(%eax),%eax
  1016db:	0f be c0             	movsbl %al,%eax
  1016de:	89 04 24             	mov    %eax,(%esp)
  1016e1:	e8 f6 10 00 00       	call   1027dc <kputc>
  1016e6:	c9                   	leave  
  1016e7:	c3                   	ret    

001016e8 <init_keyboard>:
  1016e8:	55                   	push   %ebp
  1016e9:	89 e5                	mov    %esp,%ebp
  1016eb:	83 ec 18             	sub    $0x18,%esp
  1016ee:	c6 05 0e 70 10 00 00 	movb   $0x0,0x10700e
  1016f5:	c7 44 24 08 81 16 10 	movl   $0x101681,0x8(%esp)
  1016fc:	00 
  1016fd:	c7 44 24 04 01 00 00 	movl   $0x1,0x4(%esp)
  101704:	00 
  101705:	c7 04 24 01 00 00 00 	movl   $0x1,(%esp)
  10170c:	e8 e8 fb ff ff       	call   1012f9 <set_handler>
  101711:	c7 44 24 04 fc 00 00 	movl   $0xfc,0x4(%esp)
  101718:	00 
  101719:	c7 04 24 21 00 00 00 	movl   $0x21,(%esp)
  101720:	e8 21 ff ff ff       	call   101646 <outb>
  101725:	c6 05 0e 70 10 00 01 	movb   $0x1,0x10700e
  10172c:	c9                   	leave  
  10172d:	c3                   	ret    

0010172e <outb>:
  10172e:	55                   	push   %ebp
  10172f:	89 e5                	mov    %esp,%ebp
  101731:	83 ec 08             	sub    $0x8,%esp
  101734:	8b 55 08             	mov    0x8(%ebp),%edx
  101737:	8b 45 0c             	mov    0xc(%ebp),%eax
  10173a:	66 89 55 fc          	mov    %dx,-0x4(%ebp)
  10173e:	88 45 f8             	mov    %al,-0x8(%ebp)
  101741:	0f b6 45 f8          	movzbl -0x8(%ebp),%eax
  101745:	0f b7 55 fc          	movzwl -0x4(%ebp),%edx
  101749:	ee                   	out    %al,(%dx)
  10174a:	c9                   	leave  
  10174b:	c3                   	ret    

0010174c <timer_callback>:
  10174c:	55                   	push   %ebp
  10174d:	89 e5                	mov    %esp,%ebp
  10174f:	a1 3c 70 10 00       	mov    0x10703c,%eax
  101754:	83 c0 01             	add    $0x1,%eax
  101757:	a3 3c 70 10 00       	mov    %eax,0x10703c
  10175c:	5d                   	pop    %ebp
  10175d:	c3                   	ret    

0010175e <init_timer>:
  10175e:	55                   	push   %ebp
  10175f:	89 e5                	mov    %esp,%ebp
  101761:	83 ec 28             	sub    $0x28,%esp
  101764:	c7 05 3c 70 10 00 00 	movl   $0x0,0x10703c
  10176b:	00 00 00 
  10176e:	b8 de 34 12 00       	mov    $0x1234de,%eax
  101773:	ba 00 00 00 00       	mov    $0x0,%edx
  101778:	f7 75 08             	divl   0x8(%ebp)
  10177b:	89 45 f4             	mov    %eax,-0xc(%ebp)
  10177e:	c7 44 24 04 36 00 00 	movl   $0x36,0x4(%esp)
  101785:	00 
  101786:	c7 04 24 43 00 00 00 	movl   $0x43,(%esp)
  10178d:	e8 9c ff ff ff       	call   10172e <outb>
  101792:	8b 45 f4             	mov    -0xc(%ebp),%eax
  101795:	0f b6 c0             	movzbl %al,%eax
  101798:	89 45 f0             	mov    %eax,-0x10(%ebp)
  10179b:	8b 45 f4             	mov    -0xc(%ebp),%eax
  10179e:	c1 f8 08             	sar    $0x8,%eax
  1017a1:	0f b6 c0             	movzbl %al,%eax
  1017a4:	89 45 ec             	mov    %eax,-0x14(%ebp)
  1017a7:	8b 45 f0             	mov    -0x10(%ebp),%eax
  1017aa:	0f b6 c0             	movzbl %al,%eax
  1017ad:	89 44 24 04          	mov    %eax,0x4(%esp)
  1017b1:	c7 04 24 40 00 00 00 	movl   $0x40,(%esp)
  1017b8:	e8 71 ff ff ff       	call   10172e <outb>
  1017bd:	8b 45 ec             	mov    -0x14(%ebp),%eax
  1017c0:	0f b6 c0             	movzbl %al,%eax
  1017c3:	89 44 24 04          	mov    %eax,0x4(%esp)
  1017c7:	c7 04 24 40 00 00 00 	movl   $0x40,(%esp)
  1017ce:	e8 5b ff ff ff       	call   10172e <outb>
  1017d3:	c7 44 24 08 4c 17 10 	movl   $0x10174c,0x8(%esp)
  1017da:	00 
  1017db:	c7 44 24 04 00 00 00 	movl   $0x0,0x4(%esp)
  1017e2:	00 
  1017e3:	c7 04 24 01 00 00 00 	movl   $0x1,(%esp)
  1017ea:	e8 0a fb ff ff       	call   1012f9 <set_handler>
  1017ef:	c7 44 24 04 fe 00 00 	movl   $0xfe,0x4(%esp)
  1017f6:	00 
  1017f7:	c7 04 24 21 00 00 00 	movl   $0x21,(%esp)
  1017fe:	e8 2b ff ff ff       	call   10172e <outb>
  101803:	c9                   	leave  
  101804:	c3                   	ret    

00101805 <pagefault_callback>:
  101805:	55                   	push   %ebp
  101806:	89 e5                	mov    %esp,%ebp
  101808:	83 ec 18             	sub    $0x18,%esp
  10180b:	c7 04 24 86 43 10 00 	movl   $0x104386,(%esp)
  101812:	e8 66 12 00 00       	call   102a7d <kpanic>
  101817:	c9                   	leave  
  101818:	c3                   	ret    

00101819 <init_paging>:
  101819:	55                   	push   %ebp
  10181a:	89 e5                	mov    %esp,%ebp
  10181c:	83 ec 28             	sub    $0x28,%esp
  10181f:	c7 04 24 92 43 10 00 	movl   $0x104392,(%esp)
  101826:	e8 cb 11 00 00       	call   1029f6 <kputs>
  10182b:	e8 91 01 00 00       	call   1019c1 <alloc_phys>
  101830:	a3 50 70 10 00       	mov    %eax,0x107050
  101835:	c7 45 f4 00 00 00 00 	movl   $0x0,-0xc(%ebp)
  10183c:	eb 17                	jmp    101855 <init_paging+0x3c>
  10183e:	a1 50 70 10 00       	mov    0x107050,%eax
  101843:	8b 55 f4             	mov    -0xc(%ebp),%edx
  101846:	c1 e2 02             	shl    $0x2,%edx
  101849:	01 d0                	add    %edx,%eax
  10184b:	c7 00 02 00 00 00    	movl   $0x2,(%eax)
  101851:	83 45 f4 01          	addl   $0x1,-0xc(%ebp)
  101855:	81 7d f4 ff 03 00 00 	cmpl   $0x3ff,-0xc(%ebp)
  10185c:	7e e0                	jle    10183e <init_paging+0x25>
  10185e:	e8 5e 01 00 00       	call   1019c1 <alloc_phys>
  101863:	a3 04 70 10 00       	mov    %eax,0x107004
  101868:	c7 45 f0 00 00 00 00 	movl   $0x0,-0x10(%ebp)
  10186f:	eb 1c                	jmp    10188d <init_paging+0x74>
  101871:	a1 04 70 10 00       	mov    0x107004,%eax
  101876:	8b 55 f0             	mov    -0x10(%ebp),%edx
  101879:	c1 e2 02             	shl    $0x2,%edx
  10187c:	01 d0                	add    %edx,%eax
  10187e:	8b 55 f0             	mov    -0x10(%ebp),%edx
  101881:	c1 e2 0c             	shl    $0xc,%edx
  101884:	83 ca 03             	or     $0x3,%edx
  101887:	89 10                	mov    %edx,(%eax)
  101889:	83 45 f0 01          	addl   $0x1,-0x10(%ebp)
  10188d:	81 7d f0 ff 03 00 00 	cmpl   $0x3ff,-0x10(%ebp)
  101894:	76 db                	jbe    101871 <init_paging+0x58>
  101896:	a1 50 70 10 00       	mov    0x107050,%eax
  10189b:	8b 15 04 70 10 00    	mov    0x107004,%edx
  1018a1:	83 ca 03             	or     $0x3,%edx
  1018a4:	89 10                	mov    %edx,(%eax)
  1018a6:	a1 50 70 10 00       	mov    0x107050,%eax
  1018ab:	0f 22 d8             	mov    %eax,%cr3
  1018ae:	0f 20 c0             	mov    %cr0,%eax
  1018b1:	89 45 ec             	mov    %eax,-0x14(%ebp)
  1018b4:	81 4d ec 00 00 00 80 	orl    $0x80000000,-0x14(%ebp)
  1018bb:	8b 45 ec             	mov    -0x14(%ebp),%eax
  1018be:	0f 22 c0             	mov    %eax,%cr0
  1018c1:	c7 44 24 08 05 18 10 	movl   $0x101805,0x8(%esp)
  1018c8:	00 
  1018c9:	c7 44 24 04 0e 00 00 	movl   $0xe,0x4(%esp)
  1018d0:	00 
  1018d1:	c7 04 24 00 00 00 00 	movl   $0x0,(%esp)
  1018d8:	e8 1c fa ff ff       	call   1012f9 <set_handler>
  1018dd:	c7 44 24 04 00 00 00 	movl   $0x0,0x4(%esp)
  1018e4:	00 
  1018e5:	c7 04 24 02 00 00 00 	movl   $0x2,(%esp)
  1018ec:	e8 30 11 00 00       	call   102a21 <kputcolor>
  1018f1:	c7 04 24 aa 43 10 00 	movl   $0x1043aa,(%esp)
  1018f8:	e8 f9 10 00 00       	call   1029f6 <kputs>
  1018fd:	c7 44 24 04 00 00 00 	movl   $0x0,0x4(%esp)
  101904:	00 
  101905:	c7 04 24 07 00 00 00 	movl   $0x7,(%esp)
  10190c:	e8 10 11 00 00       	call   102a21 <kputcolor>
  101911:	c9                   	leave  
  101912:	c3                   	ret    

00101913 <pmm_init>:
  101913:	55                   	push   %ebp
  101914:	89 e5                	mov    %esp,%ebp
  101916:	83 ec 28             	sub    $0x28,%esp
  101919:	c7 04 24 b0 43 10 00 	movl   $0x1043b0,(%esp)
  101920:	e8 d1 10 00 00       	call   1029f6 <kputs>
  101925:	8b 45 08             	mov    0x8(%ebp),%eax
  101928:	05 ff 0f 00 00       	add    $0xfff,%eax
  10192d:	25 00 f0 ff ff       	and    $0xfffff000,%eax
  101932:	89 45 f0             	mov    %eax,-0x10(%ebp)
  101935:	8b 45 0c             	mov    0xc(%ebp),%eax
  101938:	80 e4 ef             	and    $0xef,%ah
  10193b:	89 45 ec             	mov    %eax,-0x14(%ebp)
  10193e:	8b 45 f0             	mov    -0x10(%ebp),%eax
  101941:	89 45 f4             	mov    %eax,-0xc(%ebp)
  101944:	eb 38                	jmp    10197e <pmm_init+0x6b>
  101946:	8b 45 f4             	mov    -0xc(%ebp),%eax
  101949:	89 45 e8             	mov    %eax,-0x18(%ebp)
  10194c:	8b 45 ec             	mov    -0x14(%ebp),%eax
  10194f:	8b 55 f0             	mov    -0x10(%ebp),%edx
  101952:	01 d0                	add    %edx,%eax
  101954:	3b 45 f4             	cmp    -0xc(%ebp),%eax
  101957:	76 0e                	jbe    101967 <pmm_init+0x54>
  101959:	8b 45 f4             	mov    -0xc(%ebp),%eax
  10195c:	8d 90 00 10 00 00    	lea    0x1000(%eax),%edx
  101962:	8b 45 e8             	mov    -0x18(%ebp),%eax
  101965:	89 10                	mov    %edx,(%eax)
  101967:	8b 45 f0             	mov    -0x10(%ebp),%eax
  10196a:	3b 45 f4             	cmp    -0xc(%ebp),%eax
  10196d:	75 08                	jne    101977 <pmm_init+0x64>
  10196f:	8b 45 f4             	mov    -0xc(%ebp),%eax
  101972:	a3 18 70 10 00       	mov    %eax,0x107018
  101977:	81 45 f4 00 10 00 00 	addl   $0x1000,-0xc(%ebp)
  10197e:	8b 45 ec             	mov    -0x14(%ebp),%eax
  101981:	8b 55 f0             	mov    -0x10(%ebp),%edx
  101984:	01 d0                	add    %edx,%eax
  101986:	3b 45 f4             	cmp    -0xc(%ebp),%eax
  101989:	77 bb                	ja     101946 <pmm_init+0x33>
  10198b:	c7 44 24 04 00 00 00 	movl   $0x0,0x4(%esp)
  101992:	00 
  101993:	c7 04 24 02 00 00 00 	movl   $0x2,(%esp)
  10199a:	e8 82 10 00 00       	call   102a21 <kputcolor>
  10199f:	c7 04 24 c3 43 10 00 	movl   $0x1043c3,(%esp)
  1019a6:	e8 4b 10 00 00       	call   1029f6 <kputs>
  1019ab:	c7 44 24 04 00 00 00 	movl   $0x0,0x4(%esp)
  1019b2:	00 
  1019b3:	c7 04 24 07 00 00 00 	movl   $0x7,(%esp)
  1019ba:	e8 62 10 00 00       	call   102a21 <kputcolor>
  1019bf:	c9                   	leave  
  1019c0:	c3                   	ret    

001019c1 <alloc_phys>:
  1019c1:	55                   	push   %ebp
  1019c2:	89 e5                	mov    %esp,%ebp
  1019c4:	83 ec 10             	sub    $0x10,%esp
  1019c7:	a1 18 70 10 00       	mov    0x107018,%eax
  1019cc:	89 45 fc             	mov    %eax,-0x4(%ebp)
  1019cf:	a1 18 70 10 00       	mov    0x107018,%eax
  1019d4:	8b 00                	mov    (%eax),%eax
  1019d6:	a3 18 70 10 00       	mov    %eax,0x107018
  1019db:	8b 45 fc             	mov    -0x4(%ebp),%eax
  1019de:	c9                   	leave  
  1019df:	c3                   	ret    

001019e0 <kfree>:
  1019e0:	55                   	push   %ebp
  1019e1:	89 e5                	mov    %esp,%ebp
  1019e3:	83 ec 10             	sub    $0x10,%esp
  1019e6:	8b 45 08             	mov    0x8(%ebp),%eax
  1019e9:	89 45 fc             	mov    %eax,-0x4(%ebp)
  1019ec:	8b 15 18 70 10 00    	mov    0x107018,%edx
  1019f2:	8b 45 fc             	mov    -0x4(%ebp),%eax
  1019f5:	89 10                	mov    %edx,(%eax)
  1019f7:	8b 45 fc             	mov    -0x4(%ebp),%eax
  1019fa:	a3 18 70 10 00       	mov    %eax,0x107018
  1019ff:	c9                   	leave  
  101a00:	c3                   	ret    

00101a01 <pmm_map>:
  101a01:	55                   	push   %ebp
  101a02:	89 e5                	mov    %esp,%ebp
  101a04:	83 ec 18             	sub    $0x18,%esp
  101a07:	c7 44 24 04 00 00 00 	movl   $0x0,0x4(%esp)
  101a0e:	00 
  101a0f:	c7 04 24 0e 00 00 00 	movl   $0xe,(%esp)
  101a16:	e8 06 10 00 00       	call   102a21 <kputcolor>
  101a1b:	a1 18 70 10 00       	mov    0x107018,%eax
  101a20:	8b 10                	mov    (%eax),%edx
  101a22:	a1 18 70 10 00       	mov    0x107018,%eax
  101a27:	89 54 24 08          	mov    %edx,0x8(%esp)
  101a2b:	89 44 24 04          	mov    %eax,0x4(%esp)
  101a2f:	c7 04 24 c8 43 10 00 	movl   $0x1043c8,(%esp)
  101a36:	e8 2b 0c 00 00       	call   102666 <kprintf>
  101a3b:	c7 44 24 04 00 00 00 	movl   $0x0,0x4(%esp)
  101a42:	00 
  101a43:	c7 04 24 07 00 00 00 	movl   $0x7,(%esp)
  101a4a:	e8 d2 0f 00 00       	call   102a21 <kputcolor>
  101a4f:	c9                   	leave  
  101a50:	c3                   	ret    

00101a51 <check_rsdp>:
  101a51:	55                   	push   %ebp
  101a52:	89 e5                	mov    %esp,%ebp
  101a54:	83 ec 10             	sub    $0x10,%esp
  101a57:	c6 45 ff 00          	movb   $0x0,-0x1(%ebp)
  101a5b:	8b 45 08             	mov    0x8(%ebp),%eax
  101a5e:	89 45 f4             	mov    %eax,-0xc(%ebp)
  101a61:	c7 45 f8 00 00 00 00 	movl   $0x0,-0x8(%ebp)
  101a68:	eb 12                	jmp    101a7c <check_rsdp+0x2b>
  101a6a:	8b 55 f8             	mov    -0x8(%ebp),%edx
  101a6d:	8b 45 f4             	mov    -0xc(%ebp),%eax
  101a70:	01 d0                	add    %edx,%eax
  101a72:	0f b6 00             	movzbl (%eax),%eax
  101a75:	00 45 ff             	add    %al,-0x1(%ebp)
  101a78:	83 45 f8 01          	addl   $0x1,-0x8(%ebp)
  101a7c:	83 7d f8 13          	cmpl   $0x13,-0x8(%ebp)
  101a80:	7e e8                	jle    101a6a <check_rsdp+0x19>
  101a82:	0f b6 45 ff          	movzbl -0x1(%ebp),%eax
  101a86:	c9                   	leave  
  101a87:	c3                   	ret    

00101a88 <check_std>:
  101a88:	55                   	push   %ebp
  101a89:	89 e5                	mov    %esp,%ebp
  101a8b:	83 ec 10             	sub    $0x10,%esp
  101a8e:	c6 45 ff 00          	movb   $0x0,-0x1(%ebp)
  101a92:	c7 45 f8 00 00 00 00 	movl   $0x0,-0x8(%ebp)
  101a99:	eb 12                	jmp    101aad <check_std+0x25>
  101a9b:	8b 55 f8             	mov    -0x8(%ebp),%edx
  101a9e:	8b 45 08             	mov    0x8(%ebp),%eax
  101aa1:	01 d0                	add    %edx,%eax
  101aa3:	0f b6 00             	movzbl (%eax),%eax
  101aa6:	00 45 ff             	add    %al,-0x1(%ebp)
  101aa9:	83 45 f8 01          	addl   $0x1,-0x8(%ebp)
  101aad:	8b 55 f8             	mov    -0x8(%ebp),%edx
  101ab0:	8b 45 08             	mov    0x8(%ebp),%eax
  101ab3:	8b 40 04             	mov    0x4(%eax),%eax
  101ab6:	39 c2                	cmp    %eax,%edx
  101ab8:	72 e1                	jb     101a9b <check_std+0x13>
  101aba:	80 7d ff 00          	cmpb   $0x0,-0x1(%ebp)
  101abe:	0f 94 c0             	sete   %al
  101ac1:	c9                   	leave  
  101ac2:	c3                   	ret    

00101ac3 <EBDA_range>:
  101ac3:	55                   	push   %ebp
  101ac4:	89 e5                	mov    %esp,%ebp
  101ac6:	83 ec 18             	sub    $0x18,%esp
  101ac9:	c7 05 28 70 10 00 00 	movl   $0x9fc000,0x107028
  101ad0:	c0 9f 00 
  101ad3:	eb 77                	jmp    101b4c <EBDA_range+0x89>
  101ad5:	a1 28 70 10 00       	mov    0x107028,%eax
  101ada:	c7 44 24 08 08 00 00 	movl   $0x8,0x8(%esp)
  101ae1:	00 
  101ae2:	c7 44 24 04 f4 43 10 	movl   $0x1043f4,0x4(%esp)
  101ae9:	00 
  101aea:	89 04 24             	mov    %eax,(%esp)
  101aed:	e8 9f 12 00 00       	call   102d91 <memcmp>
  101af2:	85 c0                	test   %eax,%eax
  101af4:	75 49                	jne    101b3f <EBDA_range+0x7c>
  101af6:	c7 44 24 04 00 00 00 	movl   $0x0,0x4(%esp)
  101afd:	00 
  101afe:	c7 04 24 02 00 00 00 	movl   $0x2,(%esp)
  101b05:	e8 17 0f 00 00       	call   102a21 <kputcolor>
  101b0a:	a1 28 70 10 00       	mov    0x107028,%eax
  101b0f:	89 44 24 04          	mov    %eax,0x4(%esp)
  101b13:	c7 04 24 fd 43 10 00 	movl   $0x1043fd,(%esp)
  101b1a:	e8 47 0b 00 00       	call   102666 <kprintf>
  101b1f:	c7 44 24 04 00 00 00 	movl   $0x0,0x4(%esp)
  101b26:	00 
  101b27:	c7 04 24 07 00 00 00 	movl   $0x7,(%esp)
  101b2e:	e8 ee 0e 00 00       	call   102a21 <kputcolor>
  101b33:	c7 05 44 70 10 00 01 	movl   $0x1,0x107044
  101b3a:	00 00 00 
  101b3d:	eb 1d                	jmp    101b5c <EBDA_range+0x99>
  101b3f:	a1 28 70 10 00       	mov    0x107028,%eax
  101b44:	83 c0 10             	add    $0x10,%eax
  101b47:	a3 28 70 10 00       	mov    %eax,0x107028
  101b4c:	a1 28 70 10 00       	mov    0x107028,%eax
  101b51:	3d 00 00 0a 00       	cmp    $0xa0000,%eax
  101b56:	0f 86 79 ff ff ff    	jbe    101ad5 <EBDA_range+0x12>
  101b5c:	c9                   	leave  
  101b5d:	c3                   	ret    

00101b5e <RSD_mem_range>:
  101b5e:	55                   	push   %ebp
  101b5f:	89 e5                	mov    %esp,%ebp
  101b61:	83 ec 28             	sub    $0x28,%esp
  101b64:	a1 44 70 10 00       	mov    0x107044,%eax
  101b69:	85 c0                	test   %eax,%eax
  101b6b:	0f 85 ad 00 00 00    	jne    101c1e <RSD_mem_range+0xc0>
  101b71:	c7 05 28 70 10 00 00 	movl   $0xe0000,0x107028
  101b78:	00 0e 00 
  101b7b:	e9 8e 00 00 00       	jmp    101c0e <RSD_mem_range+0xb0>
  101b80:	a1 28 70 10 00       	mov    0x107028,%eax
  101b85:	c7 44 24 08 08 00 00 	movl   $0x8,0x8(%esp)
  101b8c:	00 
  101b8d:	c7 44 24 04 f4 43 10 	movl   $0x1043f4,0x4(%esp)
  101b94:	00 
  101b95:	89 04 24             	mov    %eax,(%esp)
  101b98:	e8 f4 11 00 00       	call   102d91 <memcmp>
  101b9d:	85 c0                	test   %eax,%eax
  101b9f:	75 60                	jne    101c01 <RSD_mem_range+0xa3>
  101ba1:	c7 44 24 04 00 00 00 	movl   $0x0,0x4(%esp)
  101ba8:	00 
  101ba9:	c7 04 24 02 00 00 00 	movl   $0x2,(%esp)
  101bb0:	e8 6c 0e 00 00       	call   102a21 <kputcolor>
  101bb5:	a1 28 70 10 00       	mov    0x107028,%eax
  101bba:	89 44 24 04          	mov    %eax,0x4(%esp)
  101bbe:	c7 04 24 fd 43 10 00 	movl   $0x1043fd,(%esp)
  101bc5:	e8 9c 0a 00 00       	call   102666 <kprintf>
  101bca:	c7 44 24 04 00 00 00 	movl   $0x0,0x4(%esp)
  101bd1:	00 
  101bd2:	c7 04 24 07 00 00 00 	movl   $0x7,(%esp)
  101bd9:	e8 43 0e 00 00       	call   102a21 <kputcolor>
  101bde:	a1 28 70 10 00       	mov    0x107028,%eax
  101be3:	89 45 f4             	mov    %eax,-0xc(%ebp)
  101be6:	8b 45 f4             	mov    -0xc(%ebp),%eax
  101be9:	89 04 24             	mov    %eax,(%esp)
  101bec:	e8 60 fe ff ff       	call   101a51 <check_rsdp>
  101bf1:	84 c0                	test   %al,%al
  101bf3:	75 0c                	jne    101c01 <RSD_mem_range+0xa3>
  101bf5:	c7 05 44 70 10 00 01 	movl   $0x1,0x107044
  101bfc:	00 00 00 
  101bff:	eb 1d                	jmp    101c1e <RSD_mem_range+0xc0>
  101c01:	a1 28 70 10 00       	mov    0x107028,%eax
  101c06:	83 c0 10             	add    $0x10,%eax
  101c09:	a3 28 70 10 00       	mov    %eax,0x107028
  101c0e:	a1 28 70 10 00       	mov    0x107028,%eax
  101c13:	3d 00 00 00 10       	cmp    $0x10000000,%eax
  101c18:	0f 86 62 ff ff ff    	jbe    101b80 <RSD_mem_range+0x22>
  101c1e:	c9                   	leave  
  101c1f:	c3                   	ret    

00101c20 <load_RSDT>:
  101c20:	55                   	push   %ebp
  101c21:	89 e5                	mov    %esp,%ebp
  101c23:	83 ec 08             	sub    $0x8,%esp
  101c26:	e8 98 fe ff ff       	call   101ac3 <EBDA_range>
  101c2b:	e8 2e ff ff ff       	call   101b5e <RSD_mem_range>
  101c30:	c9                   	leave  
  101c31:	c3                   	ret    

00101c32 <acpi_init>:
  101c32:	55                   	push   %ebp
  101c33:	89 e5                	mov    %esp,%ebp
  101c35:	83 ec 28             	sub    $0x28,%esp
  101c38:	c7 05 44 70 10 00 00 	movl   $0x0,0x107044
  101c3f:	00 00 00 
  101c42:	c7 04 24 1c 44 10 00 	movl   $0x10441c,(%esp)
  101c49:	e8 a8 0d 00 00       	call   1029f6 <kputs>
  101c4e:	e8 cd ff ff ff       	call   101c20 <load_RSDT>
  101c53:	a1 44 70 10 00       	mov    0x107044,%eax
  101c58:	85 c0                	test   %eax,%eax
  101c5a:	75 39                	jne    101c95 <acpi_init+0x63>
  101c5c:	c7 44 24 04 00 00 00 	movl   $0x0,0x4(%esp)
  101c63:	00 
  101c64:	c7 04 24 04 00 00 00 	movl   $0x4,(%esp)
  101c6b:	e8 b1 0d 00 00       	call   102a21 <kputcolor>
  101c70:	c7 04 24 3c 44 10 00 	movl   $0x10443c,(%esp)
  101c77:	e8 7a 0d 00 00       	call   1029f6 <kputs>
  101c7c:	c7 44 24 04 00 00 00 	movl   $0x0,0x4(%esp)
  101c83:	00 
  101c84:	c7 04 24 07 00 00 00 	movl   $0x7,(%esp)
  101c8b:	e8 91 0d 00 00       	call   102a21 <kputcolor>
  101c90:	e9 d4 01 00 00       	jmp    101e69 <acpi_init+0x237>
  101c95:	a1 28 70 10 00       	mov    0x107028,%eax
  101c9a:	89 45 f4             	mov    %eax,-0xc(%ebp)
  101c9d:	8b 45 f4             	mov    -0xc(%ebp),%eax
  101ca0:	0f b6 40 0f          	movzbl 0xf(%eax),%eax
  101ca4:	84 c0                	test   %al,%al
  101ca6:	0f 85 bd 01 00 00    	jne    101e69 <acpi_init+0x237>
  101cac:	c7 04 24 67 44 10 00 	movl   $0x104467,(%esp)
  101cb3:	e8 3e 0d 00 00       	call   1029f6 <kputs>
  101cb8:	c7 05 00 70 10 00 01 	movl   $0x1,0x107000
  101cbf:	00 00 00 
  101cc2:	8b 45 f4             	mov    -0xc(%ebp),%eax
  101cc5:	8d 50 09             	lea    0x9(%eax),%edx
  101cc8:	8b 45 f4             	mov    -0xc(%ebp),%eax
  101ccb:	89 54 24 08          	mov    %edx,0x8(%esp)
  101ccf:	89 44 24 04          	mov    %eax,0x4(%esp)
  101cd3:	c7 04 24 82 44 10 00 	movl   $0x104482,(%esp)
  101cda:	e8 87 09 00 00       	call   102666 <kprintf>
  101cdf:	c7 04 24 9f 44 10 00 	movl   $0x10449f,(%esp)
  101ce6:	e8 0b 0d 00 00       	call   1029f6 <kputs>
  101ceb:	8b 45 f4             	mov    -0xc(%ebp),%eax
  101cee:	89 04 24             	mov    %eax,(%esp)
  101cf1:	e8 5b fd ff ff       	call   101a51 <check_rsdp>
  101cf6:	84 c0                	test   %al,%al
  101cf8:	0f 85 37 01 00 00    	jne    101e35 <acpi_init+0x203>
  101cfe:	c7 44 24 04 00 00 00 	movl   $0x0,0x4(%esp)
  101d05:	00 
  101d06:	c7 04 24 02 00 00 00 	movl   $0x2,(%esp)
  101d0d:	e8 0f 0d 00 00       	call   102a21 <kputcolor>
  101d12:	c7 04 24 b4 44 10 00 	movl   $0x1044b4,(%esp)
  101d19:	e8 d8 0c 00 00       	call   1029f6 <kputs>
  101d1e:	c7 44 24 04 00 00 00 	movl   $0x0,0x4(%esp)
  101d25:	00 
  101d26:	c7 04 24 07 00 00 00 	movl   $0x7,(%esp)
  101d2d:	e8 ef 0c 00 00       	call   102a21 <kputcolor>
  101d32:	8b 45 f4             	mov    -0xc(%ebp),%eax
  101d35:	a3 10 70 10 00       	mov    %eax,0x107010
  101d3a:	a1 10 70 10 00       	mov    0x107010,%eax
  101d3f:	8b 40 10             	mov    0x10(%eax),%eax
  101d42:	89 44 24 04          	mov    %eax,0x4(%esp)
  101d46:	c7 04 24 b8 44 10 00 	movl   $0x1044b8,(%esp)
  101d4d:	e8 14 09 00 00       	call   102666 <kprintf>
  101d52:	a1 10 70 10 00       	mov    0x107010,%eax
  101d57:	8b 40 10             	mov    0x10(%eax),%eax
  101d5a:	a3 2c 70 10 00       	mov    %eax,0x10702c
  101d5f:	a1 2c 70 10 00       	mov    0x10702c,%eax
  101d64:	89 44 24 04          	mov    %eax,0x4(%esp)
  101d68:	c7 04 24 d4 44 10 00 	movl   $0x1044d4,(%esp)
  101d6f:	e8 f2 08 00 00       	call   102666 <kprintf>
  101d74:	c7 04 24 f8 44 10 00 	movl   $0x1044f8,(%esp)
  101d7b:	e8 e6 08 00 00       	call   102666 <kprintf>
  101d80:	a1 2c 70 10 00       	mov    0x10702c,%eax
  101d85:	89 04 24             	mov    %eax,(%esp)
  101d88:	e8 fb fc ff ff       	call   101a88 <check_std>
  101d8d:	84 c0                	test   %al,%al
  101d8f:	74 6e                	je     101dff <acpi_init+0x1cd>
  101d91:	c7 44 24 04 00 00 00 	movl   $0x0,0x4(%esp)
  101d98:	00 
  101d99:	c7 04 24 02 00 00 00 	movl   $0x2,(%esp)
  101da0:	e8 7c 0c 00 00       	call   102a21 <kputcolor>
  101da5:	c7 04 24 b4 44 10 00 	movl   $0x1044b4,(%esp)
  101dac:	e8 45 0c 00 00       	call   1029f6 <kputs>
  101db1:	c7 44 24 04 00 00 00 	movl   $0x0,0x4(%esp)
  101db8:	00 
  101db9:	c7 04 24 07 00 00 00 	movl   $0x7,(%esp)
  101dc0:	e8 5c 0c 00 00       	call   102a21 <kputcolor>
  101dc5:	a1 2c 70 10 00       	mov    0x10702c,%eax
  101dca:	0f b6 40 08          	movzbl 0x8(%eax),%eax
  101dce:	0f b6 c0             	movzbl %al,%eax
  101dd1:	89 44 24 04          	mov    %eax,0x4(%esp)
  101dd5:	c7 04 24 19 45 10 00 	movl   $0x104519,(%esp)
  101ddc:	e8 85 08 00 00       	call   102666 <kprintf>
  101de1:	c7 04 24 2d 45 10 00 	movl   $0x10452d,(%esp)
  101de8:	e8 b2 00 00 00       	call   101e9f <find_table>
  101ded:	89 44 24 04          	mov    %eax,0x4(%esp)
  101df1:	c7 04 24 32 45 10 00 	movl   $0x104532,(%esp)
  101df8:	e8 69 08 00 00       	call   102666 <kprintf>
  101dfd:	eb 6a                	jmp    101e69 <acpi_init+0x237>
  101dff:	c7 44 24 04 00 00 00 	movl   $0x0,0x4(%esp)
  101e06:	00 
  101e07:	c7 04 24 04 00 00 00 	movl   $0x4,(%esp)
  101e0e:	e8 0e 0c 00 00       	call   102a21 <kputcolor>
  101e13:	c7 04 24 40 45 10 00 	movl   $0x104540,(%esp)
  101e1a:	e8 d7 0b 00 00       	call   1029f6 <kputs>
  101e1f:	c7 44 24 04 00 00 00 	movl   $0x0,0x4(%esp)
  101e26:	00 
  101e27:	c7 04 24 07 00 00 00 	movl   $0x7,(%esp)
  101e2e:	e8 ee 0b 00 00       	call   102a21 <kputcolor>
  101e33:	eb 34                	jmp    101e69 <acpi_init+0x237>
  101e35:	c7 44 24 04 00 00 00 	movl   $0x0,0x4(%esp)
  101e3c:	00 
  101e3d:	c7 04 24 04 00 00 00 	movl   $0x4,(%esp)
  101e44:	e8 d8 0b 00 00       	call   102a21 <kputcolor>
  101e49:	c7 04 24 40 45 10 00 	movl   $0x104540,(%esp)
  101e50:	e8 a1 0b 00 00       	call   1029f6 <kputs>
  101e55:	c7 44 24 04 00 00 00 	movl   $0x0,0x4(%esp)
  101e5c:	00 
  101e5d:	c7 04 24 07 00 00 00 	movl   $0x7,(%esp)
  101e64:	e8 b8 0b 00 00       	call   102a21 <kputcolor>
  101e69:	c7 44 24 04 00 00 00 	movl   $0x0,0x4(%esp)
  101e70:	00 
  101e71:	c7 04 24 02 00 00 00 	movl   $0x2,(%esp)
  101e78:	e8 a4 0b 00 00       	call   102a21 <kputcolor>
  101e7d:	c7 04 24 5f 45 10 00 	movl   $0x10455f,(%esp)
  101e84:	e8 6d 0b 00 00       	call   1029f6 <kputs>
  101e89:	c7 44 24 04 00 00 00 	movl   $0x0,0x4(%esp)
  101e90:	00 
  101e91:	c7 04 24 07 00 00 00 	movl   $0x7,(%esp)
  101e98:	e8 84 0b 00 00       	call   102a21 <kputcolor>
  101e9d:	c9                   	leave  
  101e9e:	c3                   	ret    

00101e9f <find_table>:
  101e9f:	55                   	push   %ebp
  101ea0:	89 e5                	mov    %esp,%ebp
  101ea2:	83 ec 28             	sub    $0x28,%esp
  101ea5:	a1 2c 70 10 00       	mov    0x10702c,%eax
  101eaa:	8b 40 04             	mov    0x4(%eax),%eax
  101ead:	83 e8 24             	sub    $0x24,%eax
  101eb0:	c1 e8 02             	shr    $0x2,%eax
  101eb3:	89 45 f0             	mov    %eax,-0x10(%ebp)
  101eb6:	c7 45 f4 00 00 00 00 	movl   $0x0,-0xc(%ebp)
  101ebd:	eb 39                	jmp    101ef8 <find_table+0x59>
  101ebf:	a1 2c 70 10 00       	mov    0x10702c,%eax
  101ec4:	8b 55 f4             	mov    -0xc(%ebp),%edx
  101ec7:	83 c2 08             	add    $0x8,%edx
  101eca:	8b 44 90 04          	mov    0x4(%eax,%edx,4),%eax
  101ece:	89 45 ec             	mov    %eax,-0x14(%ebp)
  101ed1:	8b 45 ec             	mov    -0x14(%ebp),%eax
  101ed4:	c7 44 24 08 04 00 00 	movl   $0x4,0x8(%esp)
  101edb:	00 
  101edc:	8b 55 08             	mov    0x8(%ebp),%edx
  101edf:	89 54 24 04          	mov    %edx,0x4(%esp)
  101ee3:	89 04 24             	mov    %eax,(%esp)
  101ee6:	e8 a1 13 00 00       	call   10328c <strncmp>
  101eeb:	85 c0                	test   %eax,%eax
  101eed:	75 05                	jne    101ef4 <find_table+0x55>
  101eef:	8b 45 ec             	mov    -0x14(%ebp),%eax
  101ef2:	eb 11                	jmp    101f05 <find_table+0x66>
  101ef4:	83 45 f4 01          	addl   $0x1,-0xc(%ebp)
  101ef8:	8b 45 f4             	mov    -0xc(%ebp),%eax
  101efb:	3b 45 f0             	cmp    -0x10(%ebp),%eax
  101efe:	7c bf                	jl     101ebf <find_table+0x20>
  101f00:	b8 00 00 00 00       	mov    $0x0,%eax
  101f05:	c9                   	leave  
  101f06:	c3                   	ret    

00101f07 <get_rsdt>:
  101f07:	55                   	push   %ebp
  101f08:	89 e5                	mov    %esp,%ebp
  101f0a:	a1 2c 70 10 00       	mov    0x10702c,%eax
  101f0f:	5d                   	pop    %ebp
  101f10:	c3                   	ret    

00101f11 <outb>:
  101f11:	55                   	push   %ebp
  101f12:	89 e5                	mov    %esp,%ebp
  101f14:	83 ec 08             	sub    $0x8,%esp
  101f17:	8b 55 08             	mov    0x8(%ebp),%edx
  101f1a:	8b 45 0c             	mov    0xc(%ebp),%eax
  101f1d:	66 89 55 fc          	mov    %dx,-0x4(%ebp)
  101f21:	88 45 f8             	mov    %al,-0x8(%ebp)
  101f24:	0f b6 45 f8          	movzbl -0x8(%ebp),%eax
  101f28:	0f b7 55 fc          	movzwl -0x4(%ebp),%edx
  101f2c:	ee                   	out    %al,(%dx)
  101f2d:	c9                   	leave  
  101f2e:	c3                   	ret    

00101f2f <inb>:
  101f2f:	55                   	push   %ebp
  101f30:	89 e5                	mov    %esp,%ebp
  101f32:	83 ec 14             	sub    $0x14,%esp
  101f35:	8b 45 08             	mov    0x8(%ebp),%eax
  101f38:	66 89 45 ec          	mov    %ax,-0x14(%ebp)
  101f3c:	0f b7 45 ec          	movzwl -0x14(%ebp),%eax
  101f40:	89 c2                	mov    %eax,%edx
  101f42:	ec                   	in     (%dx),%al
  101f43:	88 45 ff             	mov    %al,-0x1(%ebp)
  101f46:	0f b6 45 ff          	movzbl -0x1(%ebp),%eax
  101f4a:	c9                   	leave  
  101f4b:	c3                   	ret    

00101f4c <ps2_init>:
  101f4c:	55                   	push   %ebp
  101f4d:	89 e5                	mov    %esp,%ebp
  101f4f:	83 ec 28             	sub    $0x28,%esp
  101f52:	c6 05 0d 70 10 00 00 	movb   $0x0,0x10700d
  101f59:	c7 04 24 74 45 10 00 	movl   $0x104574,(%esp)
  101f60:	e8 3a ff ff ff       	call   101e9f <find_table>
  101f65:	89 45 f4             	mov    %eax,-0xc(%ebp)
  101f68:	8b 45 f4             	mov    -0xc(%ebp),%eax
  101f6b:	0f b6 40 08          	movzbl 0x8(%eax),%eax
  101f6f:	3c 01                	cmp    $0x1,%al
  101f71:	76 5a                	jbe    101fcd <ps2_init+0x81>
  101f73:	8b 45 f4             	mov    -0xc(%ebp),%eax
  101f76:	0f b7 40 6e          	movzwl 0x6e(%eax),%eax
  101f7a:	0f b7 c0             	movzwl %ax,%eax
  101f7d:	83 e0 02             	and    $0x2,%eax
  101f80:	85 c0                	test   %eax,%eax
  101f82:	74 13                	je     101f97 <ps2_init+0x4b>
  101f84:	c7 04 24 79 45 10 00 	movl   $0x104579,(%esp)
  101f8b:	e8 66 0a 00 00       	call   1029f6 <kputs>
  101f90:	e8 73 00 00 00       	call   102008 <ps2_setup>
  101f95:	eb 6f                	jmp    102006 <ps2_init+0xba>
  101f97:	c7 44 24 04 00 00 00 	movl   $0x0,0x4(%esp)
  101f9e:	00 
  101f9f:	c7 04 24 04 00 00 00 	movl   $0x4,(%esp)
  101fa6:	e8 76 0a 00 00       	call   102a21 <kputcolor>
  101fab:	c7 04 24 94 45 10 00 	movl   $0x104594,(%esp)
  101fb2:	e8 3f 0a 00 00       	call   1029f6 <kputs>
  101fb7:	c7 44 24 04 00 00 00 	movl   $0x0,0x4(%esp)
  101fbe:	00 
  101fbf:	c7 04 24 07 00 00 00 	movl   $0x7,(%esp)
  101fc6:	e8 56 0a 00 00       	call   102a21 <kputcolor>
  101fcb:	eb 39                	jmp    102006 <ps2_init+0xba>
  101fcd:	c7 44 24 04 00 00 00 	movl   $0x0,0x4(%esp)
  101fd4:	00 
  101fd5:	c7 04 24 06 00 00 00 	movl   $0x6,(%esp)
  101fdc:	e8 40 0a 00 00       	call   102a21 <kputcolor>
  101fe1:	c7 04 24 d8 45 10 00 	movl   $0x1045d8,(%esp)
  101fe8:	e8 09 0a 00 00       	call   1029f6 <kputs>
  101fed:	c7 44 24 04 00 00 00 	movl   $0x0,0x4(%esp)
  101ff4:	00 
  101ff5:	c7 04 24 07 00 00 00 	movl   $0x7,(%esp)
  101ffc:	e8 20 0a 00 00       	call   102a21 <kputcolor>
  102001:	e8 02 00 00 00       	call   102008 <ps2_setup>
  102006:	c9                   	leave  
  102007:	c3                   	ret    

00102008 <ps2_setup>:
  102008:	55                   	push   %ebp
  102009:	89 e5                	mov    %esp,%ebp
  10200b:	83 ec 28             	sub    $0x28,%esp
  10200e:	c7 04 24 24 46 10 00 	movl   $0x104624,(%esp)
  102015:	e8 dc 09 00 00       	call   1029f6 <kputs>
  10201a:	c7 44 24 04 ad 00 00 	movl   $0xad,0x4(%esp)
  102021:	00 
  102022:	c7 04 24 64 00 00 00 	movl   $0x64,(%esp)
  102029:	e8 e3 fe ff ff       	call   101f11 <outb>
  10202e:	e8 dc 04 00 00       	call   10250f <ps2_wait>
  102033:	c7 44 24 04 a7 00 00 	movl   $0xa7,0x4(%esp)
  10203a:	00 
  10203b:	c7 04 24 64 00 00 00 	movl   $0x64,(%esp)
  102042:	e8 ca fe ff ff       	call   101f11 <outb>
  102047:	c7 04 24 60 00 00 00 	movl   $0x60,(%esp)
  10204e:	e8 dc fe ff ff       	call   101f2f <inb>
  102053:	88 45 f6             	mov    %al,-0xa(%ebp)
  102056:	c7 44 24 04 20 00 00 	movl   $0x20,0x4(%esp)
  10205d:	00 
  10205e:	c7 04 24 64 00 00 00 	movl   $0x64,(%esp)
  102065:	e8 a7 fe ff ff       	call   101f11 <outb>
  10206a:	e8 a0 04 00 00       	call   10250f <ps2_wait>
  10206f:	c7 04 24 60 00 00 00 	movl   $0x60,(%esp)
  102076:	e8 b4 fe ff ff       	call   101f2f <inb>
  10207b:	88 45 f7             	mov    %al,-0x9(%ebp)
  10207e:	80 65 f7 fe          	andb   $0xfe,-0x9(%ebp)
  102082:	80 65 f7 fd          	andb   $0xfd,-0x9(%ebp)
  102086:	80 65 f7 bf          	andb   $0xbf,-0x9(%ebp)
  10208a:	0f b6 45 f7          	movzbl -0x9(%ebp),%eax
  10208e:	83 e0 20             	and    $0x20,%eax
  102091:	85 c0                	test   %eax,%eax
  102093:	74 15                	je     1020aa <ps2_setup+0xa2>
  102095:	c6 05 3a 70 10 00 01 	movb   $0x1,0x10703a
  10209c:	c7 04 24 44 46 10 00 	movl   $0x104644,(%esp)
  1020a3:	e8 4e 09 00 00       	call   1029f6 <kputs>
  1020a8:	eb 13                	jmp    1020bd <ps2_setup+0xb5>
  1020aa:	c6 05 3a 70 10 00 00 	movb   $0x0,0x10703a
  1020b1:	c7 04 24 64 46 10 00 	movl   $0x104664,(%esp)
  1020b8:	e8 39 09 00 00       	call   1029f6 <kputs>
  1020bd:	c7 44 24 04 60 00 00 	movl   $0x60,0x4(%esp)
  1020c4:	00 
  1020c5:	c7 04 24 64 00 00 00 	movl   $0x64,(%esp)
  1020cc:	e8 40 fe ff ff       	call   101f11 <outb>
  1020d1:	0f b6 45 f7          	movzbl -0x9(%ebp),%eax
  1020d5:	89 44 24 04          	mov    %eax,0x4(%esp)
  1020d9:	c7 04 24 60 00 00 00 	movl   $0x60,(%esp)
  1020e0:	e8 2c fe ff ff       	call   101f11 <outb>
  1020e5:	c7 44 24 04 aa 00 00 	movl   $0xaa,0x4(%esp)
  1020ec:	00 
  1020ed:	c7 04 24 64 00 00 00 	movl   $0x64,(%esp)
  1020f4:	e8 18 fe ff ff       	call   101f11 <outb>
  1020f9:	e8 11 04 00 00       	call   10250f <ps2_wait>
  1020fe:	c7 04 24 60 00 00 00 	movl   $0x60,(%esp)
  102105:	e8 25 fe ff ff       	call   101f2f <inb>
  10210a:	88 45 f5             	mov    %al,-0xb(%ebp)
  10210d:	80 7d f5 55          	cmpb   $0x55,-0xb(%ebp)
  102111:	0f 85 a1 03 00 00    	jne    1024b8 <ps2_setup+0x4b0>
  102117:	c7 44 24 04 00 00 00 	movl   $0x0,0x4(%esp)
  10211e:	00 
  10211f:	c7 04 24 02 00 00 00 	movl   $0x2,(%esp)
  102126:	e8 f6 08 00 00       	call   102a21 <kputcolor>
  10212b:	c7 04 24 85 46 10 00 	movl   $0x104685,(%esp)
  102132:	e8 bf 08 00 00       	call   1029f6 <kputs>
  102137:	c7 44 24 04 00 00 00 	movl   $0x0,0x4(%esp)
  10213e:	00 
  10213f:	c7 04 24 07 00 00 00 	movl   $0x7,(%esp)
  102146:	e8 d6 08 00 00       	call   102a21 <kputcolor>
  10214b:	c7 04 24 a0 46 10 00 	movl   $0x1046a0,(%esp)
  102152:	e8 9f 08 00 00       	call   1029f6 <kputs>
  102157:	c7 44 24 04 ab 00 00 	movl   $0xab,0x4(%esp)
  10215e:	00 
  10215f:	c7 04 24 64 00 00 00 	movl   $0x64,(%esp)
  102166:	e8 a6 fd ff ff       	call   101f11 <outb>
  10216b:	e8 9f 03 00 00       	call   10250f <ps2_wait>
  102170:	c7 04 24 60 00 00 00 	movl   $0x60,(%esp)
  102177:	e8 b3 fd ff ff       	call   101f2f <inb>
  10217c:	88 45 f5             	mov    %al,-0xb(%ebp)
  10217f:	80 7d f5 00          	cmpb   $0x0,-0xb(%ebp)
  102183:	75 3d                	jne    1021c2 <ps2_setup+0x1ba>
  102185:	c7 44 24 04 00 00 00 	movl   $0x0,0x4(%esp)
  10218c:	00 
  10218d:	c7 04 24 02 00 00 00 	movl   $0x2,(%esp)
  102194:	e8 88 08 00 00       	call   102a21 <kputcolor>
  102199:	c7 04 24 bf 46 10 00 	movl   $0x1046bf,(%esp)
  1021a0:	e8 51 08 00 00       	call   1029f6 <kputs>
  1021a5:	c7 44 24 04 00 00 00 	movl   $0x0,0x4(%esp)
  1021ac:	00 
  1021ad:	c7 04 24 07 00 00 00 	movl   $0x7,(%esp)
  1021b4:	e8 68 08 00 00       	call   102a21 <kputcolor>
  1021b9:	c6 05 30 70 10 00 01 	movb   $0x1,0x107030
  1021c0:	eb 3b                	jmp    1021fd <ps2_setup+0x1f5>
  1021c2:	c7 44 24 04 00 00 00 	movl   $0x0,0x4(%esp)
  1021c9:	00 
  1021ca:	c7 04 24 04 00 00 00 	movl   $0x4,(%esp)
  1021d1:	e8 4b 08 00 00       	call   102a21 <kputcolor>
  1021d6:	c7 04 24 cd 46 10 00 	movl   $0x1046cd,(%esp)
  1021dd:	e8 14 08 00 00       	call   1029f6 <kputs>
  1021e2:	c7 44 24 04 00 00 00 	movl   $0x0,0x4(%esp)
  1021e9:	00 
  1021ea:	c7 04 24 07 00 00 00 	movl   $0x7,(%esp)
  1021f1:	e8 2b 08 00 00       	call   102a21 <kputcolor>
  1021f6:	c6 05 30 70 10 00 00 	movb   $0x0,0x107030
  1021fd:	0f b6 05 3a 70 10 00 	movzbl 0x10703a,%eax
  102204:	84 c0                	test   %al,%al
  102206:	0f 84 a8 00 00 00    	je     1022b4 <ps2_setup+0x2ac>
  10220c:	c7 44 24 04 a9 00 00 	movl   $0xa9,0x4(%esp)
  102213:	00 
  102214:	c7 04 24 64 00 00 00 	movl   $0x64,(%esp)
  10221b:	e8 f1 fc ff ff       	call   101f11 <outb>
  102220:	e8 ea 02 00 00       	call   10250f <ps2_wait>
  102225:	c7 04 24 60 00 00 00 	movl   $0x60,(%esp)
  10222c:	e8 fe fc ff ff       	call   101f2f <inb>
  102231:	88 45 f5             	mov    %al,-0xb(%ebp)
  102234:	80 7d f5 00          	cmpb   $0x0,-0xb(%ebp)
  102238:	75 3d                	jne    102277 <ps2_setup+0x26f>
  10223a:	c7 44 24 04 00 00 00 	movl   $0x0,0x4(%esp)
  102241:	00 
  102242:	c7 04 24 02 00 00 00 	movl   $0x2,(%esp)
  102249:	e8 d3 07 00 00       	call   102a21 <kputcolor>
  10224e:	c7 04 24 db 46 10 00 	movl   $0x1046db,(%esp)
  102255:	e8 9c 07 00 00       	call   1029f6 <kputs>
  10225a:	c7 44 24 04 00 00 00 	movl   $0x0,0x4(%esp)
  102261:	00 
  102262:	c7 04 24 07 00 00 00 	movl   $0x7,(%esp)
  102269:	e8 b3 07 00 00       	call   102a21 <kputcolor>
  10226e:	c6 05 40 70 10 00 01 	movb   $0x1,0x107040
  102275:	eb 50                	jmp    1022c7 <ps2_setup+0x2bf>
  102277:	c7 44 24 04 00 00 00 	movl   $0x0,0x4(%esp)
  10227e:	00 
  10227f:	c7 04 24 04 00 00 00 	movl   $0x4,(%esp)
  102286:	e8 96 07 00 00       	call   102a21 <kputcolor>
  10228b:	c7 04 24 e9 46 10 00 	movl   $0x1046e9,(%esp)
  102292:	e8 5f 07 00 00       	call   1029f6 <kputs>
  102297:	c7 44 24 04 00 00 00 	movl   $0x0,0x4(%esp)
  10229e:	00 
  10229f:	c7 04 24 07 00 00 00 	movl   $0x7,(%esp)
  1022a6:	e8 76 07 00 00       	call   102a21 <kputcolor>
  1022ab:	c6 05 40 70 10 00 00 	movb   $0x0,0x107040
  1022b2:	eb 13                	jmp    1022c7 <ps2_setup+0x2bf>
  1022b4:	c7 04 24 f7 46 10 00 	movl   $0x1046f7,(%esp)
  1022bb:	e8 36 07 00 00       	call   1029f6 <kputs>
  1022c0:	c6 05 40 70 10 00 00 	movb   $0x0,0x107040
  1022c7:	c7 04 24 09 47 10 00 	movl   $0x104709,(%esp)
  1022ce:	e8 23 07 00 00       	call   1029f6 <kputs>
  1022d3:	0f b6 05 30 70 10 00 	movzbl 0x107030,%eax
  1022da:	84 c0                	test   %al,%al
  1022dc:	74 20                	je     1022fe <ps2_setup+0x2f6>
  1022de:	c7 44 24 04 ae 00 00 	movl   $0xae,0x4(%esp)
  1022e5:	00 
  1022e6:	c7 04 24 64 00 00 00 	movl   $0x64,(%esp)
  1022ed:	e8 1f fc ff ff       	call   101f11 <outb>
  1022f2:	c7 04 24 21 47 10 00 	movl   $0x104721,(%esp)
  1022f9:	e8 f8 06 00 00       	call   1029f6 <kputs>
  1022fe:	0f b6 05 40 70 10 00 	movzbl 0x107040,%eax
  102305:	84 c0                	test   %al,%al
  102307:	74 20                	je     102329 <ps2_setup+0x321>
  102309:	c7 44 24 04 a8 00 00 	movl   $0xa8,0x4(%esp)
  102310:	00 
  102311:	c7 04 24 64 00 00 00 	movl   $0x64,(%esp)
  102318:	e8 f4 fb ff ff       	call   101f11 <outb>
  10231d:	c7 04 24 3c 47 10 00 	movl   $0x10473c,(%esp)
  102324:	e8 cd 06 00 00       	call   1029f6 <kputs>
  102329:	c7 44 24 04 20 00 00 	movl   $0x20,0x4(%esp)
  102330:	00 
  102331:	c7 04 24 64 00 00 00 	movl   $0x64,(%esp)
  102338:	e8 d4 fb ff ff       	call   101f11 <outb>
  10233d:	e8 cd 01 00 00       	call   10250f <ps2_wait>
  102342:	c7 04 24 60 00 00 00 	movl   $0x60,(%esp)
  102349:	e8 e1 fb ff ff       	call   101f2f <inb>
  10234e:	88 45 f7             	mov    %al,-0x9(%ebp)
  102351:	80 4d f7 01          	orb    $0x1,-0x9(%ebp)
  102355:	0f b6 05 40 70 10 00 	movzbl 0x107040,%eax
  10235c:	84 c0                	test   %al,%al
  10235e:	74 04                	je     102364 <ps2_setup+0x35c>
  102360:	80 4d f7 02          	orb    $0x2,-0x9(%ebp)
  102364:	c7 44 24 04 60 00 00 	movl   $0x60,0x4(%esp)
  10236b:	00 
  10236c:	c7 04 24 64 00 00 00 	movl   $0x64,(%esp)
  102373:	e8 99 fb ff ff       	call   101f11 <outb>
  102378:	0f b6 45 f7          	movzbl -0x9(%ebp),%eax
  10237c:	89 44 24 04          	mov    %eax,0x4(%esp)
  102380:	c7 04 24 60 00 00 00 	movl   $0x60,(%esp)
  102387:	e8 85 fb ff ff       	call   101f11 <outb>
  10238c:	e8 9d 01 00 00       	call   10252e <ps2_wait_input>
  102391:	c7 44 24 04 ff 00 00 	movl   $0xff,0x4(%esp)
  102398:	00 
  102399:	c7 04 24 60 00 00 00 	movl   $0x60,(%esp)
  1023a0:	e8 6c fb ff ff       	call   101f11 <outb>
  1023a5:	e8 65 01 00 00       	call   10250f <ps2_wait>
  1023aa:	c7 04 24 60 00 00 00 	movl   $0x60,(%esp)
  1023b1:	e8 79 fb ff ff       	call   101f2f <inb>
  1023b6:	88 45 f5             	mov    %al,-0xb(%ebp)
  1023b9:	80 7d f5 fa          	cmpb   $0xfa,-0xb(%ebp)
  1023bd:	75 34                	jne    1023f3 <ps2_setup+0x3eb>
  1023bf:	c7 44 24 04 00 00 00 	movl   $0x0,0x4(%esp)
  1023c6:	00 
  1023c7:	c7 04 24 02 00 00 00 	movl   $0x2,(%esp)
  1023ce:	e8 4e 06 00 00       	call   102a21 <kputcolor>
  1023d3:	c7 04 24 57 47 10 00 	movl   $0x104757,(%esp)
  1023da:	e8 17 06 00 00       	call   1029f6 <kputs>
  1023df:	c7 44 24 04 00 00 00 	movl   $0x0,0x4(%esp)
  1023e6:	00 
  1023e7:	c7 04 24 07 00 00 00 	movl   $0x7,(%esp)
  1023ee:	e8 2e 06 00 00       	call   102a21 <kputcolor>
  1023f3:	0f b6 05 40 70 10 00 	movzbl 0x107040,%eax
  1023fa:	84 c0                	test   %al,%al
  1023fc:	0f 84 0b 01 00 00    	je     10250d <ps2_setup+0x505>
  102402:	c7 44 24 04 d4 00 00 	movl   $0xd4,0x4(%esp)
  102409:	00 
  10240a:	c7 04 24 64 00 00 00 	movl   $0x64,(%esp)
  102411:	e8 fb fa ff ff       	call   101f11 <outb>
  102416:	e8 13 01 00 00       	call   10252e <ps2_wait_input>
  10241b:	c7 44 24 04 ff 00 00 	movl   $0xff,0x4(%esp)
  102422:	00 
  102423:	c7 04 24 60 00 00 00 	movl   $0x60,(%esp)
  10242a:	e8 e2 fa ff ff       	call   101f11 <outb>
  10242f:	e8 db 00 00 00       	call   10250f <ps2_wait>
  102434:	c7 04 24 60 00 00 00 	movl   $0x60,(%esp)
  10243b:	e8 ef fa ff ff       	call   101f2f <inb>
  102440:	88 45 f5             	mov    %al,-0xb(%ebp)
  102443:	80 7d f5 aa          	cmpb   $0xaa,-0xb(%ebp)
  102447:	75 39                	jne    102482 <ps2_setup+0x47a>
  102449:	c7 44 24 04 00 00 00 	movl   $0x0,0x4(%esp)
  102450:	00 
  102451:	c7 04 24 02 00 00 00 	movl   $0x2,(%esp)
  102458:	e8 c4 05 00 00       	call   102a21 <kputcolor>
  10245d:	c7 04 24 70 47 10 00 	movl   $0x104770,(%esp)
  102464:	e8 8d 05 00 00       	call   1029f6 <kputs>
  102469:	c7 44 24 04 00 00 00 	movl   $0x0,0x4(%esp)
  102470:	00 
  102471:	c7 04 24 07 00 00 00 	movl   $0x7,(%esp)
  102478:	e8 a4 05 00 00       	call   102a21 <kputcolor>
  10247d:	e9 8b 00 00 00       	jmp    10250d <ps2_setup+0x505>
  102482:	c7 44 24 04 00 00 00 	movl   $0x0,0x4(%esp)
  102489:	00 
  10248a:	c7 04 24 04 00 00 00 	movl   $0x4,(%esp)
  102491:	e8 8b 05 00 00       	call   102a21 <kputcolor>
  102496:	c7 04 24 89 47 10 00 	movl   $0x104789,(%esp)
  10249d:	e8 54 05 00 00       	call   1029f6 <kputs>
  1024a2:	c7 44 24 04 00 00 00 	movl   $0x0,0x4(%esp)
  1024a9:	00 
  1024aa:	c7 04 24 07 00 00 00 	movl   $0x7,(%esp)
  1024b1:	e8 6b 05 00 00       	call   102a21 <kputcolor>
  1024b6:	eb 55                	jmp    10250d <ps2_setup+0x505>
  1024b8:	c7 44 24 04 00 00 00 	movl   $0x0,0x4(%esp)
  1024bf:	00 
  1024c0:	c7 04 24 04 00 00 00 	movl   $0x4,(%esp)
  1024c7:	e8 55 05 00 00       	call   102a21 <kputcolor>
  1024cc:	c7 04 24 a0 47 10 00 	movl   $0x1047a0,(%esp)
  1024d3:	e8 1e 05 00 00       	call   1029f6 <kputs>
  1024d8:	c7 44 24 04 00 00 00 	movl   $0x0,0x4(%esp)
  1024df:	00 
  1024e0:	c7 04 24 07 00 00 00 	movl   $0x7,(%esp)
  1024e7:	e8 35 05 00 00       	call   102a21 <kputcolor>
  1024ec:	0f b6 05 0d 70 10 00 	movzbl 0x10700d,%eax
  1024f3:	83 f0 01             	xor    $0x1,%eax
  1024f6:	84 c0                	test   %al,%al
  1024f8:	74 07                	je     102501 <ps2_setup+0x4f9>
  1024fa:	e8 09 fb ff ff       	call   102008 <ps2_setup>
  1024ff:	eb 0c                	jmp    10250d <ps2_setup+0x505>
  102501:	c7 04 24 d4 47 10 00 	movl   $0x1047d4,(%esp)
  102508:	e8 70 05 00 00       	call   102a7d <kpanic>
  10250d:	c9                   	leave  
  10250e:	c3                   	ret    

0010250f <ps2_wait>:
  10250f:	55                   	push   %ebp
  102510:	89 e5                	mov    %esp,%ebp
  102512:	83 ec 04             	sub    $0x4,%esp
  102515:	90                   	nop
  102516:	c7 04 24 64 00 00 00 	movl   $0x64,(%esp)
  10251d:	e8 0d fa ff ff       	call   101f2f <inb>
  102522:	0f b6 c0             	movzbl %al,%eax
  102525:	83 e0 02             	and    $0x2,%eax
  102528:	85 c0                	test   %eax,%eax
  10252a:	75 ea                	jne    102516 <ps2_wait+0x7>
  10252c:	c9                   	leave  
  10252d:	c3                   	ret    

0010252e <ps2_wait_input>:
  10252e:	55                   	push   %ebp
  10252f:	89 e5                	mov    %esp,%ebp
  102531:	83 ec 04             	sub    $0x4,%esp
  102534:	90                   	nop
  102535:	c7 04 24 64 00 00 00 	movl   $0x64,(%esp)
  10253c:	e8 ee f9 ff ff       	call   101f2f <inb>
  102541:	0f b6 c0             	movzbl %al,%eax
  102544:	83 e0 04             	and    $0x4,%eax
  102547:	85 c0                	test   %eax,%eax
  102549:	74 ea                	je     102535 <ps2_wait_input+0x7>
  10254b:	c9                   	leave  
  10254c:	c3                   	ret    

0010254d <outw>:
  10254d:	55                   	push   %ebp
  10254e:	89 e5                	mov    %esp,%ebp
  102550:	83 ec 08             	sub    $0x8,%esp
  102553:	8b 55 08             	mov    0x8(%ebp),%edx
  102556:	8b 45 0c             	mov    0xc(%ebp),%eax
  102559:	66 89 55 fc          	mov    %dx,-0x4(%ebp)
  10255d:	66 89 45 f8          	mov    %ax,-0x8(%ebp)
  102561:	0f b7 45 f8          	movzwl -0x8(%ebp),%eax
  102565:	0f b7 55 fc          	movzwl -0x4(%ebp),%edx
  102569:	66 ef                	out    %ax,(%dx)
  10256b:	c9                   	leave  
  10256c:	c3                   	ret    

0010256d <textmode_init>:
  10256d:	55                   	push   %ebp
  10256e:	89 e5                	mov    %esp,%ebp
  102570:	83 ec 18             	sub    $0x18,%esp
  102573:	c7 05 24 70 10 00 02 	movl   $0x2,0x107024
  10257a:	00 00 00 
  10257d:	c7 05 1c 70 10 00 00 	movl   $0xb8000,0x10701c
  102584:	80 0b 00 
  102587:	c7 44 24 04 00 00 00 	movl   $0x0,0x4(%esp)
  10258e:	00 
  10258f:	c7 04 24 07 00 00 00 	movl   $0x7,(%esp)
  102596:	e8 86 04 00 00       	call   102a21 <kputcolor>
  10259b:	8b 45 08             	mov    0x8(%ebp),%eax
  10259e:	a3 58 70 10 00       	mov    %eax,0x107058
  1025a3:	8b 45 0c             	mov    0xc(%ebp),%eax
  1025a6:	a3 54 70 10 00       	mov    %eax,0x107054
  1025ab:	c7 44 24 04 00 00 00 	movl   $0x0,0x4(%esp)
  1025b2:	00 
  1025b3:	c7 04 24 00 00 00 00 	movl   $0x0,(%esp)
  1025ba:	e8 a9 04 00 00       	call   102a68 <set_pos>
  1025bf:	e8 2a 00 00 00       	call   1025ee <textmode_clear>
  1025c4:	c7 44 24 04 0a 20 00 	movl   $0x200a,0x4(%esp)
  1025cb:	00 
  1025cc:	c7 04 24 d4 03 00 00 	movl   $0x3d4,(%esp)
  1025d3:	e8 75 ff ff ff       	call   10254d <outw>
  1025d8:	c7 44 24 04 0b 00 00 	movl   $0xb,0x4(%esp)
  1025df:	00 
  1025e0:	c7 04 24 d4 03 00 00 	movl   $0x3d4,(%esp)
  1025e7:	e8 61 ff ff ff       	call   10254d <outw>
  1025ec:	c9                   	leave  
  1025ed:	c3                   	ret    

001025ee <textmode_clear>:
  1025ee:	55                   	push   %ebp
  1025ef:	89 e5                	mov    %esp,%ebp
  1025f1:	53                   	push   %ebx
  1025f2:	83 ec 24             	sub    $0x24,%esp
  1025f5:	c7 45 f4 00 00 00 00 	movl   $0x0,-0xc(%ebp)
  1025fc:	eb 58                	jmp    102656 <textmode_clear+0x68>
  1025fe:	c7 45 f0 00 00 00 00 	movl   $0x0,-0x10(%ebp)
  102605:	eb 41                	jmp    102648 <textmode_clear+0x5a>
  102607:	a1 58 70 10 00       	mov    0x107058,%eax
  10260c:	0f af 45 f4          	imul   -0xc(%ebp),%eax
  102610:	89 c2                	mov    %eax,%edx
  102612:	8b 45 f0             	mov    -0x10(%ebp),%eax
  102615:	01 d0                	add    %edx,%eax
  102617:	89 45 ec             	mov    %eax,-0x14(%ebp)
  10261a:	a1 1c 70 10 00       	mov    0x10701c,%eax
  10261f:	8b 55 ec             	mov    -0x14(%ebp),%edx
  102622:	01 d2                	add    %edx,%edx
  102624:	8d 1c 10             	lea    (%eax,%edx,1),%ebx
  102627:	0f b6 05 39 70 10 00 	movzbl 0x107039,%eax
  10262e:	0f b6 c0             	movzbl %al,%eax
  102631:	89 44 24 04          	mov    %eax,0x4(%esp)
  102635:	c7 04 24 20 00 00 00 	movl   $0x20,(%esp)
  10263c:	e8 f7 03 00 00       	call   102a38 <vga_entry>
  102641:	66 89 03             	mov    %ax,(%ebx)
  102644:	83 45 f0 01          	addl   $0x1,-0x10(%ebp)
  102648:	a1 58 70 10 00       	mov    0x107058,%eax
  10264d:	39 45 f0             	cmp    %eax,-0x10(%ebp)
  102650:	72 b5                	jb     102607 <textmode_clear+0x19>
  102652:	83 45 f4 01          	addl   $0x1,-0xc(%ebp)
  102656:	a1 54 70 10 00       	mov    0x107054,%eax
  10265b:	39 45 f4             	cmp    %eax,-0xc(%ebp)
  10265e:	72 9e                	jb     1025fe <textmode_clear+0x10>
  102660:	83 c4 24             	add    $0x24,%esp
  102663:	5b                   	pop    %ebx
  102664:	5d                   	pop    %ebp
  102665:	c3                   	ret    

00102666 <kprintf>:
  102666:	55                   	push   %ebp
  102667:	89 e5                	mov    %esp,%ebp
  102669:	83 ec 28             	sub    $0x28,%esp
  10266c:	8d 45 0c             	lea    0xc(%ebp),%eax
  10266f:	89 45 f4             	mov    %eax,-0xc(%ebp)
  102672:	8b 45 f4             	mov    -0xc(%ebp),%eax
  102675:	89 44 24 04          	mov    %eax,0x4(%esp)
  102679:	8b 45 08             	mov    0x8(%ebp),%eax
  10267c:	89 04 24             	mov    %eax,(%esp)
  10267f:	e8 02 00 00 00       	call   102686 <kprintf_va>
  102684:	c9                   	leave  
  102685:	c3                   	ret    

00102686 <kprintf_va>:
  102686:	55                   	push   %ebp
  102687:	89 e5                	mov    %esp,%ebp
  102689:	83 ec 48             	sub    $0x48,%esp
  10268c:	e9 3b 01 00 00       	jmp    1027cc <kprintf_va+0x146>
  102691:	8b 45 08             	mov    0x8(%ebp),%eax
  102694:	0f b6 00             	movzbl (%eax),%eax
  102697:	3c 25                	cmp    $0x25,%al
  102699:	0f 85 18 01 00 00    	jne    1027b7 <kprintf_va+0x131>
  10269f:	83 45 08 01          	addl   $0x1,0x8(%ebp)
  1026a3:	8b 45 08             	mov    0x8(%ebp),%eax
  1026a6:	0f b6 00             	movzbl (%eax),%eax
  1026a9:	0f be c0             	movsbl %al,%eax
  1026ac:	83 e8 62             	sub    $0x62,%eax
  1026af:	83 f8 16             	cmp    $0x16,%eax
  1026b2:	0f 87 ef 00 00 00    	ja     1027a7 <kprintf_va+0x121>
  1026b8:	8b 04 85 08 48 10 00 	mov    0x104808(,%eax,4),%eax
  1026bf:	ff e0                	jmp    *%eax
  1026c1:	8b 45 0c             	mov    0xc(%ebp),%eax
  1026c4:	8d 50 04             	lea    0x4(%eax),%edx
  1026c7:	89 55 0c             	mov    %edx,0xc(%ebp)
  1026ca:	8b 00                	mov    (%eax),%eax
  1026cc:	0f be c0             	movsbl %al,%eax
  1026cf:	89 04 24             	mov    %eax,(%esp)
  1026d2:	e8 05 01 00 00       	call   1027dc <kputc>
  1026d7:	e9 d9 00 00 00       	jmp    1027b5 <kprintf_va+0x12f>
  1026dc:	8b 45 0c             	mov    0xc(%ebp),%eax
  1026df:	8d 50 04             	lea    0x4(%eax),%edx
  1026e2:	89 55 0c             	mov    %edx,0xc(%ebp)
  1026e5:	8b 00                	mov    (%eax),%eax
  1026e7:	89 04 24             	mov    %eax,(%esp)
  1026ea:	e8 07 03 00 00       	call   1029f6 <kputs>
  1026ef:	e9 c1 00 00 00       	jmp    1027b5 <kprintf_va+0x12f>
  1026f4:	8b 45 0c             	mov    0xc(%ebp),%eax
  1026f7:	8d 50 04             	lea    0x4(%eax),%edx
  1026fa:	89 55 0c             	mov    %edx,0xc(%ebp)
  1026fd:	8b 00                	mov    (%eax),%eax
  1026ff:	c7 44 24 08 02 00 00 	movl   $0x2,0x8(%esp)
  102706:	00 
  102707:	8d 55 d7             	lea    -0x29(%ebp),%edx
  10270a:	89 54 24 04          	mov    %edx,0x4(%esp)
  10270e:	89 04 24             	mov    %eax,(%esp)
  102711:	e8 f5 04 00 00       	call   102c0b <itoa>
  102716:	89 04 24             	mov    %eax,(%esp)
  102719:	e8 d8 02 00 00       	call   1029f6 <kputs>
  10271e:	e9 92 00 00 00       	jmp    1027b5 <kprintf_va+0x12f>
  102723:	8b 45 0c             	mov    0xc(%ebp),%eax
  102726:	8d 50 04             	lea    0x4(%eax),%edx
  102729:	89 55 0c             	mov    %edx,0xc(%ebp)
  10272c:	8b 00                	mov    (%eax),%eax
  10272e:	c7 44 24 08 0a 00 00 	movl   $0xa,0x8(%esp)
  102735:	00 
  102736:	8d 55 d7             	lea    -0x29(%ebp),%edx
  102739:	89 54 24 04          	mov    %edx,0x4(%esp)
  10273d:	89 04 24             	mov    %eax,(%esp)
  102740:	e8 c6 04 00 00       	call   102c0b <itoa>
  102745:	89 04 24             	mov    %eax,(%esp)
  102748:	e8 a9 02 00 00       	call   1029f6 <kputs>
  10274d:	eb 66                	jmp    1027b5 <kprintf_va+0x12f>
  10274f:	8b 45 0c             	mov    0xc(%ebp),%eax
  102752:	8d 50 04             	lea    0x4(%eax),%edx
  102755:	89 55 0c             	mov    %edx,0xc(%ebp)
  102758:	8b 00                	mov    (%eax),%eax
  10275a:	c7 44 24 08 0a 00 00 	movl   $0xa,0x8(%esp)
  102761:	00 
  102762:	8d 55 d7             	lea    -0x29(%ebp),%edx
  102765:	89 54 24 04          	mov    %edx,0x4(%esp)
  102769:	89 04 24             	mov    %eax,(%esp)
  10276c:	e8 95 05 00 00       	call   102d06 <itoa_s>
  102771:	89 04 24             	mov    %eax,(%esp)
  102774:	e8 7d 02 00 00       	call   1029f6 <kputs>
  102779:	eb 3a                	jmp    1027b5 <kprintf_va+0x12f>
  10277b:	8b 45 0c             	mov    0xc(%ebp),%eax
  10277e:	8d 50 04             	lea    0x4(%eax),%edx
  102781:	89 55 0c             	mov    %edx,0xc(%ebp)
  102784:	8b 00                	mov    (%eax),%eax
  102786:	c7 44 24 08 10 00 00 	movl   $0x10,0x8(%esp)
  10278d:	00 
  10278e:	8d 55 d7             	lea    -0x29(%ebp),%edx
  102791:	89 54 24 04          	mov    %edx,0x4(%esp)
  102795:	89 04 24             	mov    %eax,(%esp)
  102798:	e8 6e 04 00 00       	call   102c0b <itoa>
  10279d:	89 04 24             	mov    %eax,(%esp)
  1027a0:	e8 51 02 00 00       	call   1029f6 <kputs>
  1027a5:	eb 0e                	jmp    1027b5 <kprintf_va+0x12f>
  1027a7:	c7 04 24 3f 00 00 00 	movl   $0x3f,(%esp)
  1027ae:	e8 29 00 00 00       	call   1027dc <kputc>
  1027b3:	eb 13                	jmp    1027c8 <kprintf_va+0x142>
  1027b5:	eb 11                	jmp    1027c8 <kprintf_va+0x142>
  1027b7:	8b 45 08             	mov    0x8(%ebp),%eax
  1027ba:	0f b6 00             	movzbl (%eax),%eax
  1027bd:	0f be c0             	movsbl %al,%eax
  1027c0:	89 04 24             	mov    %eax,(%esp)
  1027c3:	e8 14 00 00 00       	call   1027dc <kputc>
  1027c8:	83 45 08 01          	addl   $0x1,0x8(%ebp)
  1027cc:	8b 45 08             	mov    0x8(%ebp),%eax
  1027cf:	0f b6 00             	movzbl (%eax),%eax
  1027d2:	84 c0                	test   %al,%al
  1027d4:	0f 85 b7 fe ff ff    	jne    102691 <kprintf_va+0xb>
  1027da:	c9                   	leave  
  1027db:	c3                   	ret    

001027dc <kputc>:
  1027dc:	55                   	push   %ebp
  1027dd:	89 e5                	mov    %esp,%ebp
  1027df:	53                   	push   %ebx
  1027e0:	83 ec 24             	sub    $0x24,%esp
  1027e3:	8b 45 08             	mov    0x8(%ebp),%eax
  1027e6:	88 45 e4             	mov    %al,-0x1c(%ebp)
  1027e9:	0f be 45 e4          	movsbl -0x1c(%ebp),%eax
  1027ed:	83 f8 09             	cmp    $0x9,%eax
  1027f0:	0f 84 97 00 00 00    	je     10288d <kputc+0xb1>
  1027f6:	83 f8 09             	cmp    $0x9,%eax
  1027f9:	7f 0a                	jg     102805 <kputc+0x29>
  1027fb:	83 f8 08             	cmp    $0x8,%eax
  1027fe:	74 4b                	je     10284b <kputc+0x6f>
  102800:	e9 a9 00 00 00       	jmp    1028ae <kputc+0xd2>
  102805:	83 f8 0a             	cmp    $0xa,%eax
  102808:	74 0a                	je     102814 <kputc+0x38>
  10280a:	83 f8 0d             	cmp    $0xd,%eax
  10280d:	74 22                	je     102831 <kputc+0x55>
  10280f:	e9 9a 00 00 00       	jmp    1028ae <kputc+0xd2>
  102814:	a1 5c 70 10 00       	mov    0x10705c,%eax
  102819:	83 c0 01             	add    $0x1,%eax
  10281c:	89 44 24 04          	mov    %eax,0x4(%esp)
  102820:	c7 04 24 00 00 00 00 	movl   $0x0,(%esp)
  102827:	e8 3c 02 00 00       	call   102a68 <set_pos>
  10282c:	e9 da 00 00 00       	jmp    10290b <kputc+0x12f>
  102831:	a1 5c 70 10 00       	mov    0x10705c,%eax
  102836:	89 44 24 04          	mov    %eax,0x4(%esp)
  10283a:	c7 04 24 00 00 00 00 	movl   $0x0,(%esp)
  102841:	e8 22 02 00 00       	call   102a68 <set_pos>
  102846:	e9 c0 00 00 00       	jmp    10290b <kputc+0x12f>
  10284b:	a1 5c 70 10 00       	mov    0x10705c,%eax
  102850:	8b 15 08 70 10 00    	mov    0x107008,%edx
  102856:	83 ea 01             	sub    $0x1,%edx
  102859:	89 44 24 04          	mov    %eax,0x4(%esp)
  10285d:	89 14 24             	mov    %edx,(%esp)
  102860:	e8 03 02 00 00       	call   102a68 <set_pos>
  102865:	c7 04 24 20 00 00 00 	movl   $0x20,(%esp)
  10286c:	e8 6b ff ff ff       	call   1027dc <kputc>
  102871:	a1 5c 70 10 00       	mov    0x10705c,%eax
  102876:	8b 15 08 70 10 00    	mov    0x107008,%edx
  10287c:	83 ea 01             	sub    $0x1,%edx
  10287f:	89 44 24 04          	mov    %eax,0x4(%esp)
  102883:	89 14 24             	mov    %edx,(%esp)
  102886:	e8 dd 01 00 00       	call   102a68 <set_pos>
  10288b:	eb 7e                	jmp    10290b <kputc+0x12f>
  10288d:	a1 5c 70 10 00       	mov    0x10705c,%eax
  102892:	8b 0d 08 70 10 00    	mov    0x107008,%ecx
  102898:	8b 15 24 70 10 00    	mov    0x107024,%edx
  10289e:	01 ca                	add    %ecx,%edx
  1028a0:	89 44 24 04          	mov    %eax,0x4(%esp)
  1028a4:	89 14 24             	mov    %edx,(%esp)
  1028a7:	e8 bc 01 00 00       	call   102a68 <set_pos>
  1028ac:	eb 5d                	jmp    10290b <kputc+0x12f>
  1028ae:	8b 15 5c 70 10 00    	mov    0x10705c,%edx
  1028b4:	a1 58 70 10 00       	mov    0x107058,%eax
  1028b9:	0f af d0             	imul   %eax,%edx
  1028bc:	a1 08 70 10 00       	mov    0x107008,%eax
  1028c1:	01 d0                	add    %edx,%eax
  1028c3:	89 45 f0             	mov    %eax,-0x10(%ebp)
  1028c6:	a1 1c 70 10 00       	mov    0x10701c,%eax
  1028cb:	8b 55 f0             	mov    -0x10(%ebp),%edx
  1028ce:	01 d2                	add    %edx,%edx
  1028d0:	8d 1c 10             	lea    (%eax,%edx,1),%ebx
  1028d3:	0f b6 05 39 70 10 00 	movzbl 0x107039,%eax
  1028da:	0f b6 d0             	movzbl %al,%edx
  1028dd:	0f be 45 e4          	movsbl -0x1c(%ebp),%eax
  1028e1:	89 54 24 04          	mov    %edx,0x4(%esp)
  1028e5:	89 04 24             	mov    %eax,(%esp)
  1028e8:	e8 4b 01 00 00       	call   102a38 <vga_entry>
  1028ed:	66 89 03             	mov    %ax,(%ebx)
  1028f0:	a1 5c 70 10 00       	mov    0x10705c,%eax
  1028f5:	8b 15 08 70 10 00    	mov    0x107008,%edx
  1028fb:	83 c2 01             	add    $0x1,%edx
  1028fe:	89 44 24 04          	mov    %eax,0x4(%esp)
  102902:	89 14 24             	mov    %edx,(%esp)
  102905:	e8 5e 01 00 00       	call   102a68 <set_pos>
  10290a:	90                   	nop
  10290b:	a1 58 70 10 00       	mov    0x107058,%eax
  102910:	8d 50 ff             	lea    -0x1(%eax),%edx
  102913:	a1 08 70 10 00       	mov    0x107008,%eax
  102918:	39 c2                	cmp    %eax,%edx
  10291a:	73 18                	jae    102934 <kputc+0x158>
  10291c:	a1 5c 70 10 00       	mov    0x10705c,%eax
  102921:	83 c0 01             	add    $0x1,%eax
  102924:	89 44 24 04          	mov    %eax,0x4(%esp)
  102928:	c7 04 24 00 00 00 00 	movl   $0x0,(%esp)
  10292f:	e8 34 01 00 00       	call   102a68 <set_pos>
  102934:	a1 54 70 10 00       	mov    0x107054,%eax
  102939:	8d 50 ff             	lea    -0x1(%eax),%edx
  10293c:	a1 5c 70 10 00       	mov    0x10705c,%eax
  102941:	39 c2                	cmp    %eax,%edx
  102943:	0f 83 a7 00 00 00    	jae    1029f0 <kputc+0x214>
  102949:	a1 54 70 10 00       	mov    0x107054,%eax
  10294e:	8d 90 ff ff ff 7f    	lea    0x7fffffff(%eax),%edx
  102954:	a1 58 70 10 00       	mov    0x107058,%eax
  102959:	0f af c2             	imul   %edx,%eax
  10295c:	8d 0c 00             	lea    (%eax,%eax,1),%ecx
  10295f:	a1 1c 70 10 00       	mov    0x10701c,%eax
  102964:	8b 15 58 70 10 00    	mov    0x107058,%edx
  10296a:	01 d2                	add    %edx,%edx
  10296c:	01 c2                	add    %eax,%edx
  10296e:	a1 1c 70 10 00       	mov    0x10701c,%eax
  102973:	89 4c 24 08          	mov    %ecx,0x8(%esp)
  102977:	89 54 24 04          	mov    %edx,0x4(%esp)
  10297b:	89 04 24             	mov    %eax,(%esp)
  10297e:	e8 69 04 00 00       	call   102dec <memmove>
  102983:	c7 45 f4 00 00 00 00 	movl   $0x0,-0xc(%ebp)
  10298a:	eb 42                	jmp    1029ce <kputc+0x1f2>
  10298c:	a1 1c 70 10 00       	mov    0x10701c,%eax
  102991:	8b 15 5c 70 10 00    	mov    0x10705c,%edx
  102997:	8d 4a ff             	lea    -0x1(%edx),%ecx
  10299a:	8b 15 58 70 10 00    	mov    0x107058,%edx
  1029a0:	0f af ca             	imul   %edx,%ecx
  1029a3:	8b 55 f4             	mov    -0xc(%ebp),%edx
  1029a6:	01 ca                	add    %ecx,%edx
  1029a8:	01 d2                	add    %edx,%edx
  1029aa:	8d 1c 10             	lea    (%eax,%edx,1),%ebx
  1029ad:	0f b6 05 39 70 10 00 	movzbl 0x107039,%eax
  1029b4:	0f b6 c0             	movzbl %al,%eax
  1029b7:	89 44 24 04          	mov    %eax,0x4(%esp)
  1029bb:	c7 04 24 20 00 00 00 	movl   $0x20,(%esp)
  1029c2:	e8 71 00 00 00       	call   102a38 <vga_entry>
  1029c7:	66 89 03             	mov    %ax,(%ebx)
  1029ca:	83 45 f4 01          	addl   $0x1,-0xc(%ebp)
  1029ce:	a1 58 70 10 00       	mov    0x107058,%eax
  1029d3:	39 45 f4             	cmp    %eax,-0xc(%ebp)
  1029d6:	72 b4                	jb     10298c <kputc+0x1b0>
  1029d8:	a1 5c 70 10 00       	mov    0x10705c,%eax
  1029dd:	83 e8 01             	sub    $0x1,%eax
  1029e0:	89 44 24 04          	mov    %eax,0x4(%esp)
  1029e4:	c7 04 24 00 00 00 00 	movl   $0x0,(%esp)
  1029eb:	e8 78 00 00 00       	call   102a68 <set_pos>
  1029f0:	83 c4 24             	add    $0x24,%esp
  1029f3:	5b                   	pop    %ebx
  1029f4:	5d                   	pop    %ebp
  1029f5:	c3                   	ret    

001029f6 <kputs>:
  1029f6:	55                   	push   %ebp
  1029f7:	89 e5                	mov    %esp,%ebp
  1029f9:	83 ec 18             	sub    $0x18,%esp
  1029fc:	eb 17                	jmp    102a15 <kputs+0x1f>
  1029fe:	8b 45 08             	mov    0x8(%ebp),%eax
  102a01:	8d 50 01             	lea    0x1(%eax),%edx
  102a04:	89 55 08             	mov    %edx,0x8(%ebp)
  102a07:	0f b6 00             	movzbl (%eax),%eax
  102a0a:	0f be c0             	movsbl %al,%eax
  102a0d:	89 04 24             	mov    %eax,(%esp)
  102a10:	e8 c7 fd ff ff       	call   1027dc <kputc>
  102a15:	8b 45 08             	mov    0x8(%ebp),%eax
  102a18:	0f b6 00             	movzbl (%eax),%eax
  102a1b:	84 c0                	test   %al,%al
  102a1d:	75 df                	jne    1029fe <kputs+0x8>
  102a1f:	c9                   	leave  
  102a20:	c3                   	ret    

00102a21 <kputcolor>:
  102a21:	55                   	push   %ebp
  102a22:	89 e5                	mov    %esp,%ebp
  102a24:	8b 45 0c             	mov    0xc(%ebp),%eax
  102a27:	c1 e0 04             	shl    $0x4,%eax
  102a2a:	89 c2                	mov    %eax,%edx
  102a2c:	8b 45 08             	mov    0x8(%ebp),%eax
  102a2f:	09 d0                	or     %edx,%eax
  102a31:	a2 39 70 10 00       	mov    %al,0x107039
  102a36:	5d                   	pop    %ebp
  102a37:	c3                   	ret    

00102a38 <vga_entry>:
  102a38:	55                   	push   %ebp
  102a39:	89 e5                	mov    %esp,%ebp
  102a3b:	83 ec 18             	sub    $0x18,%esp
  102a3e:	8b 55 08             	mov    0x8(%ebp),%edx
  102a41:	8b 45 0c             	mov    0xc(%ebp),%eax
  102a44:	88 55 ec             	mov    %dl,-0x14(%ebp)
  102a47:	88 45 e8             	mov    %al,-0x18(%ebp)
  102a4a:	66 0f be 45 ec       	movsbw -0x14(%ebp),%ax
  102a4f:	66 89 45 fe          	mov    %ax,-0x2(%ebp)
  102a53:	0f b6 45 e8          	movzbl -0x18(%ebp),%eax
  102a57:	66 89 45 fc          	mov    %ax,-0x4(%ebp)
  102a5b:	0f b7 45 fc          	movzwl -0x4(%ebp),%eax
  102a5f:	c1 e0 08             	shl    $0x8,%eax
  102a62:	66 0b 45 fe          	or     -0x2(%ebp),%ax
  102a66:	c9                   	leave  
  102a67:	c3                   	ret    

00102a68 <set_pos>:
  102a68:	55                   	push   %ebp
  102a69:	89 e5                	mov    %esp,%ebp
  102a6b:	8b 45 08             	mov    0x8(%ebp),%eax
  102a6e:	a3 08 70 10 00       	mov    %eax,0x107008
  102a73:	8b 45 0c             	mov    0xc(%ebp),%eax
  102a76:	a3 5c 70 10 00       	mov    %eax,0x10705c
  102a7b:	5d                   	pop    %ebp
  102a7c:	c3                   	ret    

00102a7d <kpanic>:
  102a7d:	55                   	push   %ebp
  102a7e:	89 e5                	mov    %esp,%ebp
  102a80:	56                   	push   %esi
  102a81:	53                   	push   %ebx
  102a82:	83 ec 10             	sub    $0x10,%esp
  102a85:	e8 64 fb ff ff       	call   1025ee <textmode_clear>
  102a8a:	c7 44 24 04 0f 00 00 	movl   $0xf,0x4(%esp)
  102a91:	00 
  102a92:	c7 04 24 08 00 00 00 	movl   $0x8,(%esp)
  102a99:	e8 83 ff ff ff       	call   102a21 <kputcolor>
  102a9e:	e8 4b fb ff ff       	call   1025ee <textmode_clear>
  102aa3:	a1 54 70 10 00       	mov    0x107054,%eax
  102aa8:	d1 e8                	shr    %eax
  102aaa:	8d 58 fa             	lea    -0x6(%eax),%ebx
  102aad:	a1 58 70 10 00       	mov    0x107058,%eax
  102ab2:	d1 e8                	shr    %eax
  102ab4:	89 c6                	mov    %eax,%esi
  102ab6:	c7 04 24 64 48 10 00 	movl   $0x104864,(%esp)
  102abd:	e8 4d 07 00 00       	call   10320f <strlen>
  102ac2:	d1 e8                	shr    %eax
  102ac4:	29 c6                	sub    %eax,%esi
  102ac6:	89 f0                	mov    %esi,%eax
  102ac8:	89 5c 24 04          	mov    %ebx,0x4(%esp)
  102acc:	89 04 24             	mov    %eax,(%esp)
  102acf:	e8 94 ff ff ff       	call   102a68 <set_pos>
  102ad4:	c7 04 24 64 48 10 00 	movl   $0x104864,(%esp)
  102adb:	e8 16 ff ff ff       	call   1029f6 <kputs>
  102ae0:	a1 54 70 10 00       	mov    0x107054,%eax
  102ae5:	d1 e8                	shr    %eax
  102ae7:	8d 58 fb             	lea    -0x5(%eax),%ebx
  102aea:	a1 58 70 10 00       	mov    0x107058,%eax
  102aef:	d1 e8                	shr    %eax
  102af1:	89 c6                	mov    %eax,%esi
  102af3:	8b 45 08             	mov    0x8(%ebp),%eax
  102af6:	89 04 24             	mov    %eax,(%esp)
  102af9:	e8 11 07 00 00       	call   10320f <strlen>
  102afe:	d1 e8                	shr    %eax
  102b00:	29 c6                	sub    %eax,%esi
  102b02:	89 f0                	mov    %esi,%eax
  102b04:	83 e8 03             	sub    $0x3,%eax
  102b07:	89 5c 24 04          	mov    %ebx,0x4(%esp)
  102b0b:	89 04 24             	mov    %eax,(%esp)
  102b0e:	e8 55 ff ff ff       	call   102a68 <set_pos>
  102b13:	c7 04 24 90 48 10 00 	movl   $0x104890,(%esp)
  102b1a:	e8 d7 fe ff ff       	call   1029f6 <kputs>
  102b1f:	a1 54 70 10 00       	mov    0x107054,%eax
  102b24:	d1 e8                	shr    %eax
  102b26:	8d 58 fb             	lea    -0x5(%eax),%ebx
  102b29:	a1 58 70 10 00       	mov    0x107058,%eax
  102b2e:	d1 e8                	shr    %eax
  102b30:	89 c6                	mov    %eax,%esi
  102b32:	8b 45 08             	mov    0x8(%ebp),%eax
  102b35:	89 04 24             	mov    %eax,(%esp)
  102b38:	e8 d2 06 00 00       	call   10320f <strlen>
  102b3d:	d1 e8                	shr    %eax
  102b3f:	29 c6                	sub    %eax,%esi
  102b41:	89 f0                	mov    %esi,%eax
  102b43:	83 c0 04             	add    $0x4,%eax
  102b46:	89 5c 24 04          	mov    %ebx,0x4(%esp)
  102b4a:	89 04 24             	mov    %eax,(%esp)
  102b4d:	e8 16 ff ff ff       	call   102a68 <set_pos>
  102b52:	8b 45 08             	mov    0x8(%ebp),%eax
  102b55:	89 04 24             	mov    %eax,(%esp)
  102b58:	e8 99 fe ff ff       	call   1029f6 <kputs>
  102b5d:	a1 5c 70 10 00       	mov    0x10705c,%eax
  102b62:	8d 58 02             	lea    0x2(%eax),%ebx
  102b65:	a1 58 70 10 00       	mov    0x107058,%eax
  102b6a:	d1 e8                	shr    %eax
  102b6c:	89 c6                	mov    %eax,%esi
  102b6e:	c7 04 24 98 48 10 00 	movl   $0x104898,(%esp)
  102b75:	e8 95 06 00 00       	call   10320f <strlen>
  102b7a:	d1 e8                	shr    %eax
  102b7c:	29 c6                	sub    %eax,%esi
  102b7e:	89 f0                	mov    %esi,%eax
  102b80:	89 5c 24 04          	mov    %ebx,0x4(%esp)
  102b84:	89 04 24             	mov    %eax,(%esp)
  102b87:	e8 dc fe ff ff       	call   102a68 <set_pos>
  102b8c:	e8 de db ff ff       	call   10076f <elf_trace>
  102b91:	a1 54 70 10 00       	mov    0x107054,%eax
  102b96:	8d 58 fd             	lea    -0x3(%eax),%ebx
  102b99:	a1 58 70 10 00       	mov    0x107058,%eax
  102b9e:	d1 e8                	shr    %eax
  102ba0:	89 c6                	mov    %eax,%esi
  102ba2:	c7 04 24 ac 48 10 00 	movl   $0x1048ac,(%esp)
  102ba9:	e8 61 06 00 00       	call   10320f <strlen>
  102bae:	d1 e8                	shr    %eax
  102bb0:	29 c6                	sub    %eax,%esi
  102bb2:	89 f0                	mov    %esi,%eax
  102bb4:	89 5c 24 04          	mov    %ebx,0x4(%esp)
  102bb8:	89 04 24             	mov    %eax,(%esp)
  102bbb:	e8 a8 fe ff ff       	call   102a68 <set_pos>
  102bc0:	c7 04 24 ac 48 10 00 	movl   $0x1048ac,(%esp)
  102bc7:	e8 2a fe ff ff       	call   1029f6 <kputs>
  102bcc:	a1 54 70 10 00       	mov    0x107054,%eax
  102bd1:	8d 58 fe             	lea    -0x2(%eax),%ebx
  102bd4:	a1 58 70 10 00       	mov    0x107058,%eax
  102bd9:	d1 e8                	shr    %eax
  102bdb:	89 c6                	mov    %eax,%esi
  102bdd:	c7 04 24 d0 48 10 00 	movl   $0x1048d0,(%esp)
  102be4:	e8 26 06 00 00       	call   10320f <strlen>
  102be9:	d1 e8                	shr    %eax
  102beb:	29 c6                	sub    %eax,%esi
  102bed:	89 f0                	mov    %esi,%eax
  102bef:	89 5c 24 04          	mov    %ebx,0x4(%esp)
  102bf3:	89 04 24             	mov    %eax,(%esp)
  102bf6:	e8 6d fe ff ff       	call   102a68 <set_pos>
  102bfb:	c7 04 24 d0 48 10 00 	movl   $0x1048d0,(%esp)
  102c02:	e8 ef fd ff ff       	call   1029f6 <kputs>
  102c07:	fa                   	cli    
  102c08:	f4                   	hlt    
  102c09:	eb fd                	jmp    102c08 <kpanic+0x18b>

00102c0b <itoa>:
  102c0b:	55                   	push   %ebp
  102c0c:	89 e5                	mov    %esp,%ebp
  102c0e:	53                   	push   %ebx
  102c0f:	83 ec 34             	sub    $0x34,%esp
  102c12:	83 7d 10 02          	cmpl   $0x2,0x10(%ebp)
  102c16:	74 1c                	je     102c34 <itoa+0x29>
  102c18:	83 7d 10 08          	cmpl   $0x8,0x10(%ebp)
  102c1c:	74 16                	je     102c34 <itoa+0x29>
  102c1e:	83 7d 10 0a          	cmpl   $0xa,0x10(%ebp)
  102c22:	74 10                	je     102c34 <itoa+0x29>
  102c24:	83 7d 10 10          	cmpl   $0x10,0x10(%ebp)
  102c28:	74 0a                	je     102c34 <itoa+0x29>
  102c2a:	b8 00 00 00 00       	mov    $0x0,%eax
  102c2f:	e9 cc 00 00 00       	jmp    102d00 <itoa+0xf5>
  102c34:	8b 45 0c             	mov    0xc(%ebp),%eax
  102c37:	89 45 e8             	mov    %eax,-0x18(%ebp)
  102c3a:	83 7d 08 00          	cmpl   $0x0,0x8(%ebp)
  102c3e:	75 1b                	jne    102c5b <itoa+0x50>
  102c40:	c7 44 24 04 f6 48 10 	movl   $0x1048f6,0x4(%esp)
  102c47:	00 
  102c48:	8b 45 0c             	mov    0xc(%ebp),%eax
  102c4b:	89 04 24             	mov    %eax,(%esp)
  102c4e:	e8 9f 05 00 00       	call   1031f2 <strcpy>
  102c53:	8b 45 0c             	mov    0xc(%ebp),%eax
  102c56:	e9 a5 00 00 00       	jmp    102d00 <itoa+0xf5>
  102c5b:	eb 49                	jmp    102ca6 <itoa+0x9b>
  102c5d:	8b 4d 10             	mov    0x10(%ebp),%ecx
  102c60:	8b 45 08             	mov    0x8(%ebp),%eax
  102c63:	ba 00 00 00 00       	mov    $0x0,%edx
  102c68:	f7 f1                	div    %ecx
  102c6a:	89 d0                	mov    %edx,%eax
  102c6c:	89 45 e4             	mov    %eax,-0x1c(%ebp)
  102c6f:	8b 5d 10             	mov    0x10(%ebp),%ebx
  102c72:	8b 45 08             	mov    0x8(%ebp),%eax
  102c75:	ba 00 00 00 00       	mov    $0x0,%edx
  102c7a:	f7 f3                	div    %ebx
  102c7c:	89 45 08             	mov    %eax,0x8(%ebp)
  102c7f:	83 7d e4 09          	cmpl   $0x9,-0x1c(%ebp)
  102c83:	7e 0b                	jle    102c90 <itoa+0x85>
  102c85:	8b 45 e4             	mov    -0x1c(%ebp),%eax
  102c88:	83 c0 57             	add    $0x57,%eax
  102c8b:	88 45 f7             	mov    %al,-0x9(%ebp)
  102c8e:	eb 09                	jmp    102c99 <itoa+0x8e>
  102c90:	8b 45 e4             	mov    -0x1c(%ebp),%eax
  102c93:	83 c0 30             	add    $0x30,%eax
  102c96:	88 45 f7             	mov    %al,-0x9(%ebp)
  102c99:	8b 45 0c             	mov    0xc(%ebp),%eax
  102c9c:	0f b6 55 f7          	movzbl -0x9(%ebp),%edx
  102ca0:	88 10                	mov    %dl,(%eax)
  102ca2:	83 45 0c 01          	addl   $0x1,0xc(%ebp)
  102ca6:	83 7d 08 00          	cmpl   $0x0,0x8(%ebp)
  102caa:	75 b1                	jne    102c5d <itoa+0x52>
  102cac:	8b 45 0c             	mov    0xc(%ebp),%eax
  102caf:	c6 00 00             	movb   $0x0,(%eax)
  102cb2:	8b 45 e8             	mov    -0x18(%ebp),%eax
  102cb5:	89 45 f0             	mov    %eax,-0x10(%ebp)
  102cb8:	8b 45 e8             	mov    -0x18(%ebp),%eax
  102cbb:	89 04 24             	mov    %eax,(%esp)
  102cbe:	e8 4c 05 00 00       	call   10320f <strlen>
  102cc3:	8d 50 ff             	lea    -0x1(%eax),%edx
  102cc6:	8b 45 e8             	mov    -0x18(%ebp),%eax
  102cc9:	01 d0                	add    %edx,%eax
  102ccb:	89 45 ec             	mov    %eax,-0x14(%ebp)
  102cce:	eb 25                	jmp    102cf5 <itoa+0xea>
  102cd0:	8b 45 f0             	mov    -0x10(%ebp),%eax
  102cd3:	0f b6 00             	movzbl (%eax),%eax
  102cd6:	88 45 e3             	mov    %al,-0x1d(%ebp)
  102cd9:	8b 45 ec             	mov    -0x14(%ebp),%eax
  102cdc:	0f b6 10             	movzbl (%eax),%edx
  102cdf:	8b 45 f0             	mov    -0x10(%ebp),%eax
  102ce2:	88 10                	mov    %dl,(%eax)
  102ce4:	8b 45 ec             	mov    -0x14(%ebp),%eax
  102ce7:	0f b6 55 e3          	movzbl -0x1d(%ebp),%edx
  102ceb:	88 10                	mov    %dl,(%eax)
  102ced:	83 45 f0 01          	addl   $0x1,-0x10(%ebp)
  102cf1:	83 6d ec 01          	subl   $0x1,-0x14(%ebp)
  102cf5:	8b 45 f0             	mov    -0x10(%ebp),%eax
  102cf8:	3b 45 ec             	cmp    -0x14(%ebp),%eax
  102cfb:	72 d3                	jb     102cd0 <itoa+0xc5>
  102cfd:	8b 45 e8             	mov    -0x18(%ebp),%eax
  102d00:	83 c4 34             	add    $0x34,%esp
  102d03:	5b                   	pop    %ebx
  102d04:	5d                   	pop    %ebp
  102d05:	c3                   	ret    

00102d06 <itoa_s>:
  102d06:	55                   	push   %ebp
  102d07:	89 e5                	mov    %esp,%ebp
  102d09:	83 ec 28             	sub    $0x28,%esp
  102d0c:	83 7d 10 02          	cmpl   $0x2,0x10(%ebp)
  102d10:	74 19                	je     102d2b <itoa_s+0x25>
  102d12:	83 7d 10 08          	cmpl   $0x8,0x10(%ebp)
  102d16:	74 13                	je     102d2b <itoa_s+0x25>
  102d18:	83 7d 10 0a          	cmpl   $0xa,0x10(%ebp)
  102d1c:	74 0d                	je     102d2b <itoa_s+0x25>
  102d1e:	83 7d 10 10          	cmpl   $0x10,0x10(%ebp)
  102d22:	74 07                	je     102d2b <itoa_s+0x25>
  102d24:	b8 00 00 00 00       	mov    $0x0,%eax
  102d29:	eb 64                	jmp    102d8f <itoa_s+0x89>
  102d2b:	8b 45 0c             	mov    0xc(%ebp),%eax
  102d2e:	89 45 f0             	mov    %eax,-0x10(%ebp)
  102d31:	83 7d 08 00          	cmpl   $0x0,0x8(%ebp)
  102d35:	75 18                	jne    102d4f <itoa_s+0x49>
  102d37:	c7 44 24 04 f6 48 10 	movl   $0x1048f6,0x4(%esp)
  102d3e:	00 
  102d3f:	8b 45 0c             	mov    0xc(%ebp),%eax
  102d42:	89 04 24             	mov    %eax,(%esp)
  102d45:	e8 a8 04 00 00       	call   1031f2 <strcpy>
  102d4a:	8b 45 0c             	mov    0xc(%ebp),%eax
  102d4d:	eb 40                	jmp    102d8f <itoa_s+0x89>
  102d4f:	c6 45 f7 00          	movb   $0x0,-0x9(%ebp)
  102d53:	83 7d 08 00          	cmpl   $0x0,0x8(%ebp)
  102d57:	79 15                	jns    102d6e <itoa_s+0x68>
  102d59:	c6 45 f7 01          	movb   $0x1,-0x9(%ebp)
  102d5d:	8b 45 0c             	mov    0xc(%ebp),%eax
  102d60:	c6 00 2d             	movb   $0x2d,(%eax)
  102d63:	83 45 0c 01          	addl   $0x1,0xc(%ebp)
  102d67:	83 45 f0 01          	addl   $0x1,-0x10(%ebp)
  102d6b:	f7 5d 08             	negl   0x8(%ebp)
  102d6e:	8b 45 08             	mov    0x8(%ebp),%eax
  102d71:	8b 55 10             	mov    0x10(%ebp),%edx
  102d74:	89 54 24 08          	mov    %edx,0x8(%esp)
  102d78:	8b 55 0c             	mov    0xc(%ebp),%edx
  102d7b:	89 54 24 04          	mov    %edx,0x4(%esp)
  102d7f:	89 04 24             	mov    %eax,(%esp)
  102d82:	e8 84 fe ff ff       	call   102c0b <itoa>
  102d87:	0f b6 55 f7          	movzbl -0x9(%ebp),%edx
  102d8b:	f7 da                	neg    %edx
  102d8d:	01 d0                	add    %edx,%eax
  102d8f:	c9                   	leave  
  102d90:	c3                   	ret    

00102d91 <memcmp>:
  102d91:	55                   	push   %ebp
  102d92:	89 e5                	mov    %esp,%ebp
  102d94:	83 ec 10             	sub    $0x10,%esp
  102d97:	8b 45 08             	mov    0x8(%ebp),%eax
  102d9a:	89 45 fc             	mov    %eax,-0x4(%ebp)
  102d9d:	8b 45 0c             	mov    0xc(%ebp),%eax
  102da0:	89 45 f8             	mov    %eax,-0x8(%ebp)
  102da3:	eb 0c                	jmp    102db1 <memcmp+0x20>
  102da5:	83 6d 10 01          	subl   $0x1,0x10(%ebp)
  102da9:	83 45 fc 01          	addl   $0x1,-0x4(%ebp)
  102dad:	83 45 f8 01          	addl   $0x1,-0x8(%ebp)
  102db1:	83 7d 10 00          	cmpl   $0x0,0x10(%ebp)
  102db5:	74 10                	je     102dc7 <memcmp+0x36>
  102db7:	8b 45 fc             	mov    -0x4(%ebp),%eax
  102dba:	0f b6 10             	movzbl (%eax),%edx
  102dbd:	8b 45 f8             	mov    -0x8(%ebp),%eax
  102dc0:	0f b6 00             	movzbl (%eax),%eax
  102dc3:	38 c2                	cmp    %al,%dl
  102dc5:	74 de                	je     102da5 <memcmp+0x14>
  102dc7:	83 7d 10 00          	cmpl   $0x0,0x10(%ebp)
  102dcb:	74 18                	je     102de5 <memcmp+0x54>
  102dcd:	8b 45 fc             	mov    -0x4(%ebp),%eax
  102dd0:	0f b6 00             	movzbl (%eax),%eax
  102dd3:	0f b6 d0             	movzbl %al,%edx
  102dd6:	8b 45 f8             	mov    -0x8(%ebp),%eax
  102dd9:	0f b6 00             	movzbl (%eax),%eax
  102ddc:	0f b6 c0             	movzbl %al,%eax
  102ddf:	29 c2                	sub    %eax,%edx
  102de1:	89 d0                	mov    %edx,%eax
  102de3:	eb 05                	jmp    102dea <memcmp+0x59>
  102de5:	b8 00 00 00 00       	mov    $0x0,%eax
  102dea:	c9                   	leave  
  102deb:	c3                   	ret    

00102dec <memmove>:
  102dec:	55                   	push   %ebp
  102ded:	89 e5                	mov    %esp,%ebp
  102def:	83 ec 28             	sub    $0x28,%esp
  102df2:	8b 45 08             	mov    0x8(%ebp),%eax
  102df5:	89 45 f4             	mov    %eax,-0xc(%ebp)
  102df8:	8b 45 0c             	mov    0xc(%ebp),%eax
  102dfb:	89 45 f0             	mov    %eax,-0x10(%ebp)
  102dfe:	8b 45 f4             	mov    -0xc(%ebp),%eax
  102e01:	3b 45 f0             	cmp    -0x10(%ebp),%eax
  102e04:	75 08                	jne    102e0e <memmove+0x22>
  102e06:	8b 45 f4             	mov    -0xc(%ebp),%eax
  102e09:	e9 5c 01 00 00       	jmp    102f6a <memmove+0x17e>
  102e0e:	8b 45 10             	mov    0x10(%ebp),%eax
  102e11:	8b 55 f0             	mov    -0x10(%ebp),%edx
  102e14:	01 d0                	add    %edx,%eax
  102e16:	3b 45 f4             	cmp    -0xc(%ebp),%eax
  102e19:	76 0d                	jbe    102e28 <memmove+0x3c>
  102e1b:	8b 45 10             	mov    0x10(%ebp),%eax
  102e1e:	8b 55 f4             	mov    -0xc(%ebp),%edx
  102e21:	01 d0                	add    %edx,%eax
  102e23:	3b 45 f0             	cmp    -0x10(%ebp),%eax
  102e26:	77 1e                	ja     102e46 <memmove+0x5a>
  102e28:	8b 45 10             	mov    0x10(%ebp),%eax
  102e2b:	89 44 24 08          	mov    %eax,0x8(%esp)
  102e2f:	8b 45 f0             	mov    -0x10(%ebp),%eax
  102e32:	89 44 24 04          	mov    %eax,0x4(%esp)
  102e36:	8b 45 f4             	mov    -0xc(%ebp),%eax
  102e39:	89 04 24             	mov    %eax,(%esp)
  102e3c:	e8 c1 04 00 00       	call   103302 <memcpy>
  102e41:	e9 24 01 00 00       	jmp    102f6a <memmove+0x17e>
  102e46:	8b 45 f4             	mov    -0xc(%ebp),%eax
  102e49:	3b 45 f0             	cmp    -0x10(%ebp),%eax
  102e4c:	0f 83 8d 00 00 00    	jae    102edf <memmove+0xf3>
  102e52:	8b 55 f0             	mov    -0x10(%ebp),%edx
  102e55:	8b 45 f4             	mov    -0xc(%ebp),%eax
  102e58:	31 d0                	xor    %edx,%eax
  102e5a:	83 e0 03             	and    $0x3,%eax
  102e5d:	85 c0                	test   %eax,%eax
  102e5f:	75 56                	jne    102eb7 <memmove+0xcb>
  102e61:	eb 2c                	jmp    102e8f <memmove+0xa3>
  102e63:	8b 45 10             	mov    0x10(%ebp),%eax
  102e66:	8d 50 ff             	lea    -0x1(%eax),%edx
  102e69:	89 55 10             	mov    %edx,0x10(%ebp)
  102e6c:	85 c0                	test   %eax,%eax
  102e6e:	75 08                	jne    102e78 <memmove+0x8c>
  102e70:	8b 45 08             	mov    0x8(%ebp),%eax
  102e73:	e9 f2 00 00 00       	jmp    102f6a <memmove+0x17e>
  102e78:	8b 45 f4             	mov    -0xc(%ebp),%eax
  102e7b:	8d 50 01             	lea    0x1(%eax),%edx
  102e7e:	89 55 f4             	mov    %edx,-0xc(%ebp)
  102e81:	8b 55 f0             	mov    -0x10(%ebp),%edx
  102e84:	8d 4a 01             	lea    0x1(%edx),%ecx
  102e87:	89 4d f0             	mov    %ecx,-0x10(%ebp)
  102e8a:	0f b6 12             	movzbl (%edx),%edx
  102e8d:	88 10                	mov    %dl,(%eax)
  102e8f:	8b 45 f4             	mov    -0xc(%ebp),%eax
  102e92:	83 e0 03             	and    $0x3,%eax
  102e95:	85 c0                	test   %eax,%eax
  102e97:	75 ca                	jne    102e63 <memmove+0x77>
  102e99:	eb 16                	jmp    102eb1 <memmove+0xc5>
  102e9b:	8b 45 f0             	mov    -0x10(%ebp),%eax
  102e9e:	8b 10                	mov    (%eax),%edx
  102ea0:	8b 45 f4             	mov    -0xc(%ebp),%eax
  102ea3:	89 10                	mov    %edx,(%eax)
  102ea5:	83 6d 10 04          	subl   $0x4,0x10(%ebp)
  102ea9:	83 45 f4 04          	addl   $0x4,-0xc(%ebp)
  102ead:	83 45 f0 04          	addl   $0x4,-0x10(%ebp)
  102eb1:	83 7d 10 03          	cmpl   $0x3,0x10(%ebp)
  102eb5:	77 e4                	ja     102e9b <memmove+0xaf>
  102eb7:	eb 1b                	jmp    102ed4 <memmove+0xe8>
  102eb9:	8b 45 f4             	mov    -0xc(%ebp),%eax
  102ebc:	8d 50 01             	lea    0x1(%eax),%edx
  102ebf:	89 55 f4             	mov    %edx,-0xc(%ebp)
  102ec2:	8b 55 f0             	mov    -0x10(%ebp),%edx
  102ec5:	8d 4a 01             	lea    0x1(%edx),%ecx
  102ec8:	89 4d f0             	mov    %ecx,-0x10(%ebp)
  102ecb:	0f b6 12             	movzbl (%edx),%edx
  102ece:	88 10                	mov    %dl,(%eax)
  102ed0:	83 6d 10 01          	subl   $0x1,0x10(%ebp)
  102ed4:	83 7d 10 00          	cmpl   $0x0,0x10(%ebp)
  102ed8:	75 df                	jne    102eb9 <memmove+0xcd>
  102eda:	e9 88 00 00 00       	jmp    102f67 <memmove+0x17b>
  102edf:	8b 55 f0             	mov    -0x10(%ebp),%edx
  102ee2:	8b 45 f4             	mov    -0xc(%ebp),%eax
  102ee5:	31 d0                	xor    %edx,%eax
  102ee7:	83 e0 03             	and    $0x3,%eax
  102eea:	85 c0                	test   %eax,%eax
  102eec:	75 58                	jne    102f46 <memmove+0x15a>
  102eee:	eb 27                	jmp    102f17 <memmove+0x12b>
  102ef0:	8b 45 10             	mov    0x10(%ebp),%eax
  102ef3:	8d 50 ff             	lea    -0x1(%eax),%edx
  102ef6:	89 55 10             	mov    %edx,0x10(%ebp)
  102ef9:	85 c0                	test   %eax,%eax
  102efb:	75 05                	jne    102f02 <memmove+0x116>
  102efd:	8b 45 08             	mov    0x8(%ebp),%eax
  102f00:	eb 68                	jmp    102f6a <memmove+0x17e>
  102f02:	8b 45 10             	mov    0x10(%ebp),%eax
  102f05:	8b 55 f4             	mov    -0xc(%ebp),%edx
  102f08:	01 c2                	add    %eax,%edx
  102f0a:	8b 45 10             	mov    0x10(%ebp),%eax
  102f0d:	8b 4d f0             	mov    -0x10(%ebp),%ecx
  102f10:	01 c8                	add    %ecx,%eax
  102f12:	0f b6 00             	movzbl (%eax),%eax
  102f15:	88 02                	mov    %al,(%edx)
  102f17:	8b 45 10             	mov    0x10(%ebp),%eax
  102f1a:	8b 55 f4             	mov    -0xc(%ebp),%edx
  102f1d:	01 d0                	add    %edx,%eax
  102f1f:	83 e0 03             	and    $0x3,%eax
  102f22:	85 c0                	test   %eax,%eax
  102f24:	75 ca                	jne    102ef0 <memmove+0x104>
  102f26:	eb 18                	jmp    102f40 <memmove+0x154>
  102f28:	83 6d 10 04          	subl   $0x4,0x10(%ebp)
  102f2c:	8b 45 10             	mov    0x10(%ebp),%eax
  102f2f:	8b 55 f4             	mov    -0xc(%ebp),%edx
  102f32:	01 c2                	add    %eax,%edx
  102f34:	8b 45 10             	mov    0x10(%ebp),%eax
  102f37:	8b 4d f0             	mov    -0x10(%ebp),%ecx
  102f3a:	01 c8                	add    %ecx,%eax
  102f3c:	8b 00                	mov    (%eax),%eax
  102f3e:	89 02                	mov    %eax,(%edx)
  102f40:	83 7d 10 03          	cmpl   $0x3,0x10(%ebp)
  102f44:	77 e2                	ja     102f28 <memmove+0x13c>
  102f46:	eb 19                	jmp    102f61 <memmove+0x175>
  102f48:	83 6d 10 01          	subl   $0x1,0x10(%ebp)
  102f4c:	8b 45 10             	mov    0x10(%ebp),%eax
  102f4f:	8b 55 f4             	mov    -0xc(%ebp),%edx
  102f52:	01 c2                	add    %eax,%edx
  102f54:	8b 45 10             	mov    0x10(%ebp),%eax
  102f57:	8b 4d f0             	mov    -0x10(%ebp),%ecx
  102f5a:	01 c8                	add    %ecx,%eax
  102f5c:	0f b6 00             	movzbl (%eax),%eax
  102f5f:	88 02                	mov    %al,(%edx)
  102f61:	83 7d 10 00          	cmpl   $0x0,0x10(%ebp)
  102f65:	75 e1                	jne    102f48 <memmove+0x15c>
  102f67:	8b 45 08             	mov    0x8(%ebp),%eax
  102f6a:	c9                   	leave  
  102f6b:	c3                   	ret    

00102f6c <memset>:
  102f6c:	55                   	push   %ebp
  102f6d:	89 e5                	mov    %esp,%ebp
  102f6f:	56                   	push   %esi
  102f70:	53                   	push   %ebx
  102f71:	83 ec 20             	sub    $0x20,%esp
  102f74:	8b 45 08             	mov    0x8(%ebp),%eax
  102f77:	89 45 f4             	mov    %eax,-0xc(%ebp)
  102f7a:	83 7d 10 00          	cmpl   $0x0,0x10(%ebp)
  102f7e:	75 08                	jne    102f88 <memset+0x1c>
  102f80:	8b 45 08             	mov    0x8(%ebp),%eax
  102f83:	e9 24 02 00 00       	jmp    1031ac <memset+0x240>
  102f88:	8b 45 10             	mov    0x10(%ebp),%eax
  102f8b:	8d 50 ff             	lea    -0x1(%eax),%edx
  102f8e:	8b 45 f4             	mov    -0xc(%ebp),%eax
  102f91:	01 d0                	add    %edx,%eax
  102f93:	8b 55 0c             	mov    0xc(%ebp),%edx
  102f96:	88 10                	mov    %dl,(%eax)
  102f98:	0f b6 10             	movzbl (%eax),%edx
  102f9b:	8b 45 f4             	mov    -0xc(%ebp),%eax
  102f9e:	88 10                	mov    %dl,(%eax)
  102fa0:	83 7d 10 02          	cmpl   $0x2,0x10(%ebp)
  102fa4:	77 08                	ja     102fae <memset+0x42>
  102fa6:	8b 45 08             	mov    0x8(%ebp),%eax
  102fa9:	e9 fe 01 00 00       	jmp    1031ac <memset+0x240>
  102fae:	8b 45 f4             	mov    -0xc(%ebp),%eax
  102fb1:	8d 48 01             	lea    0x1(%eax),%ecx
  102fb4:	8b 45 10             	mov    0x10(%ebp),%eax
  102fb7:	8d 50 fe             	lea    -0x2(%eax),%edx
  102fba:	8b 45 f4             	mov    -0xc(%ebp),%eax
  102fbd:	01 d0                	add    %edx,%eax
  102fbf:	8b 55 0c             	mov    0xc(%ebp),%edx
  102fc2:	88 10                	mov    %dl,(%eax)
  102fc4:	0f b6 00             	movzbl (%eax),%eax
  102fc7:	88 01                	mov    %al,(%ecx)
  102fc9:	8b 45 f4             	mov    -0xc(%ebp),%eax
  102fcc:	8d 48 02             	lea    0x2(%eax),%ecx
  102fcf:	8b 45 10             	mov    0x10(%ebp),%eax
  102fd2:	8d 50 fd             	lea    -0x3(%eax),%edx
  102fd5:	8b 45 f4             	mov    -0xc(%ebp),%eax
  102fd8:	01 d0                	add    %edx,%eax
  102fda:	8b 55 0c             	mov    0xc(%ebp),%edx
  102fdd:	88 10                	mov    %dl,(%eax)
  102fdf:	0f b6 00             	movzbl (%eax),%eax
  102fe2:	88 01                	mov    %al,(%ecx)
  102fe4:	83 7d 10 06          	cmpl   $0x6,0x10(%ebp)
  102fe8:	77 08                	ja     102ff2 <memset+0x86>
  102fea:	8b 45 08             	mov    0x8(%ebp),%eax
  102fed:	e9 ba 01 00 00       	jmp    1031ac <memset+0x240>
  102ff2:	8b 45 f4             	mov    -0xc(%ebp),%eax
  102ff5:	8d 48 03             	lea    0x3(%eax),%ecx
  102ff8:	8b 45 10             	mov    0x10(%ebp),%eax
  102ffb:	8d 50 fc             	lea    -0x4(%eax),%edx
  102ffe:	8b 45 f4             	mov    -0xc(%ebp),%eax
  103001:	01 d0                	add    %edx,%eax
  103003:	8b 55 0c             	mov    0xc(%ebp),%edx
  103006:	88 10                	mov    %dl,(%eax)
  103008:	0f b6 00             	movzbl (%eax),%eax
  10300b:	88 01                	mov    %al,(%ecx)
  10300d:	83 7d 10 08          	cmpl   $0x8,0x10(%ebp)
  103011:	77 08                	ja     10301b <memset+0xaf>
  103013:	8b 45 08             	mov    0x8(%ebp),%eax
  103016:	e9 91 01 00 00       	jmp    1031ac <memset+0x240>
  10301b:	8b 45 f4             	mov    -0xc(%ebp),%eax
  10301e:	f7 d8                	neg    %eax
  103020:	83 e0 03             	and    $0x3,%eax
  103023:	89 45 f0             	mov    %eax,-0x10(%ebp)
  103026:	8b 45 f0             	mov    -0x10(%ebp),%eax
  103029:	01 45 f4             	add    %eax,-0xc(%ebp)
  10302c:	8b 45 f0             	mov    -0x10(%ebp),%eax
  10302f:	29 45 10             	sub    %eax,0x10(%ebp)
  103032:	83 65 10 fc          	andl   $0xfffffffc,0x10(%ebp)
  103036:	8b 45 0c             	mov    0xc(%ebp),%eax
  103039:	0f b6 c0             	movzbl %al,%eax
  10303c:	69 c0 01 01 01 01    	imul   $0x1010101,%eax,%eax
  103042:	89 45 ec             	mov    %eax,-0x14(%ebp)
  103045:	8b 45 f4             	mov    -0xc(%ebp),%eax
  103048:	8b 55 ec             	mov    -0x14(%ebp),%edx
  10304b:	89 10                	mov    %edx,(%eax)
  10304d:	8b 45 10             	mov    0x10(%ebp),%eax
  103050:	8d 50 fc             	lea    -0x4(%eax),%edx
  103053:	8b 45 f4             	mov    -0xc(%ebp),%eax
  103056:	01 c2                	add    %eax,%edx
  103058:	8b 45 ec             	mov    -0x14(%ebp),%eax
  10305b:	89 02                	mov    %eax,(%edx)
  10305d:	83 7d 10 08          	cmpl   $0x8,0x10(%ebp)
  103061:	77 08                	ja     10306b <memset+0xff>
  103063:	8b 45 08             	mov    0x8(%ebp),%eax
  103066:	e9 41 01 00 00       	jmp    1031ac <memset+0x240>
  10306b:	8b 45 f4             	mov    -0xc(%ebp),%eax
  10306e:	8d 50 04             	lea    0x4(%eax),%edx
  103071:	8b 45 ec             	mov    -0x14(%ebp),%eax
  103074:	89 02                	mov    %eax,(%edx)
  103076:	8b 45 f4             	mov    -0xc(%ebp),%eax
  103079:	8d 50 08             	lea    0x8(%eax),%edx
  10307c:	8b 45 ec             	mov    -0x14(%ebp),%eax
  10307f:	89 02                	mov    %eax,(%edx)
  103081:	8b 45 10             	mov    0x10(%ebp),%eax
  103084:	8d 50 f4             	lea    -0xc(%eax),%edx
  103087:	8b 45 f4             	mov    -0xc(%ebp),%eax
  10308a:	01 c2                	add    %eax,%edx
  10308c:	8b 45 ec             	mov    -0x14(%ebp),%eax
  10308f:	89 02                	mov    %eax,(%edx)
  103091:	8b 45 10             	mov    0x10(%ebp),%eax
  103094:	8d 50 f8             	lea    -0x8(%eax),%edx
  103097:	8b 45 f4             	mov    -0xc(%ebp),%eax
  10309a:	01 c2                	add    %eax,%edx
  10309c:	8b 45 ec             	mov    -0x14(%ebp),%eax
  10309f:	89 02                	mov    %eax,(%edx)
  1030a1:	83 7d 10 18          	cmpl   $0x18,0x10(%ebp)
  1030a5:	77 08                	ja     1030af <memset+0x143>
  1030a7:	8b 45 08             	mov    0x8(%ebp),%eax
  1030aa:	e9 fd 00 00 00       	jmp    1031ac <memset+0x240>
  1030af:	8b 45 f4             	mov    -0xc(%ebp),%eax
  1030b2:	8d 50 0c             	lea    0xc(%eax),%edx
  1030b5:	8b 45 ec             	mov    -0x14(%ebp),%eax
  1030b8:	89 02                	mov    %eax,(%edx)
  1030ba:	8b 45 f4             	mov    -0xc(%ebp),%eax
  1030bd:	8d 50 10             	lea    0x10(%eax),%edx
  1030c0:	8b 45 ec             	mov    -0x14(%ebp),%eax
  1030c3:	89 02                	mov    %eax,(%edx)
  1030c5:	8b 45 f4             	mov    -0xc(%ebp),%eax
  1030c8:	8d 50 14             	lea    0x14(%eax),%edx
  1030cb:	8b 45 ec             	mov    -0x14(%ebp),%eax
  1030ce:	89 02                	mov    %eax,(%edx)
  1030d0:	8b 45 f4             	mov    -0xc(%ebp),%eax
  1030d3:	8d 50 18             	lea    0x18(%eax),%edx
  1030d6:	8b 45 ec             	mov    -0x14(%ebp),%eax
  1030d9:	89 02                	mov    %eax,(%edx)
  1030db:	8b 45 10             	mov    0x10(%ebp),%eax
  1030de:	8d 50 e4             	lea    -0x1c(%eax),%edx
  1030e1:	8b 45 f4             	mov    -0xc(%ebp),%eax
  1030e4:	01 c2                	add    %eax,%edx
  1030e6:	8b 45 ec             	mov    -0x14(%ebp),%eax
  1030e9:	89 02                	mov    %eax,(%edx)
  1030eb:	8b 45 10             	mov    0x10(%ebp),%eax
  1030ee:	8d 50 e8             	lea    -0x18(%eax),%edx
  1030f1:	8b 45 f4             	mov    -0xc(%ebp),%eax
  1030f4:	01 c2                	add    %eax,%edx
  1030f6:	8b 45 ec             	mov    -0x14(%ebp),%eax
  1030f9:	89 02                	mov    %eax,(%edx)
  1030fb:	8b 45 10             	mov    0x10(%ebp),%eax
  1030fe:	8d 50 ec             	lea    -0x14(%eax),%edx
  103101:	8b 45 f4             	mov    -0xc(%ebp),%eax
  103104:	01 c2                	add    %eax,%edx
  103106:	8b 45 ec             	mov    -0x14(%ebp),%eax
  103109:	89 02                	mov    %eax,(%edx)
  10310b:	8b 45 10             	mov    0x10(%ebp),%eax
  10310e:	8d 50 f0             	lea    -0x10(%eax),%edx
  103111:	8b 45 f4             	mov    -0xc(%ebp),%eax
  103114:	01 c2                	add    %eax,%edx
  103116:	8b 45 ec             	mov    -0x14(%ebp),%eax
  103119:	89 02                	mov    %eax,(%edx)
  10311b:	8b 45 f4             	mov    -0xc(%ebp),%eax
  10311e:	83 e0 04             	and    $0x4,%eax
  103121:	83 c0 18             	add    $0x18,%eax
  103124:	89 45 f0             	mov    %eax,-0x10(%ebp)
  103127:	8b 45 f0             	mov    -0x10(%ebp),%eax
  10312a:	01 45 f4             	add    %eax,-0xc(%ebp)
  10312d:	8b 45 f0             	mov    -0x10(%ebp),%eax
  103130:	29 45 10             	sub    %eax,0x10(%ebp)
  103133:	8b 4d ec             	mov    -0x14(%ebp),%ecx
  103136:	bb 00 00 00 00       	mov    $0x0,%ebx
  10313b:	8b 45 ec             	mov    -0x14(%ebp),%eax
  10313e:	ba 00 00 00 00       	mov    $0x0,%edx
  103143:	89 c2                	mov    %eax,%edx
  103145:	b8 00 00 00 00       	mov    $0x0,%eax
  10314a:	89 ce                	mov    %ecx,%esi
  10314c:	09 c6                	or     %eax,%esi
  10314e:	89 75 e0             	mov    %esi,-0x20(%ebp)
  103151:	09 d3                	or     %edx,%ebx
  103153:	89 d8                	mov    %ebx,%eax
  103155:	89 45 e4             	mov    %eax,-0x1c(%ebp)
  103158:	eb 49                	jmp    1031a3 <memset+0x237>
  10315a:	8b 4d f4             	mov    -0xc(%ebp),%ecx
  10315d:	8b 45 e0             	mov    -0x20(%ebp),%eax
  103160:	8b 55 e4             	mov    -0x1c(%ebp),%edx
  103163:	89 01                	mov    %eax,(%ecx)
  103165:	89 51 04             	mov    %edx,0x4(%ecx)
  103168:	8b 45 f4             	mov    -0xc(%ebp),%eax
  10316b:	8d 48 08             	lea    0x8(%eax),%ecx
  10316e:	8b 45 e0             	mov    -0x20(%ebp),%eax
  103171:	8b 55 e4             	mov    -0x1c(%ebp),%edx
  103174:	89 01                	mov    %eax,(%ecx)
  103176:	89 51 04             	mov    %edx,0x4(%ecx)
  103179:	8b 45 f4             	mov    -0xc(%ebp),%eax
  10317c:	8d 48 10             	lea    0x10(%eax),%ecx
  10317f:	8b 45 e0             	mov    -0x20(%ebp),%eax
  103182:	8b 55 e4             	mov    -0x1c(%ebp),%edx
  103185:	89 01                	mov    %eax,(%ecx)
  103187:	89 51 04             	mov    %edx,0x4(%ecx)
  10318a:	8b 45 f4             	mov    -0xc(%ebp),%eax
  10318d:	8d 48 18             	lea    0x18(%eax),%ecx
  103190:	8b 45 e0             	mov    -0x20(%ebp),%eax
  103193:	8b 55 e4             	mov    -0x1c(%ebp),%edx
  103196:	89 01                	mov    %eax,(%ecx)
  103198:	89 51 04             	mov    %edx,0x4(%ecx)
  10319b:	83 6d 10 20          	subl   $0x20,0x10(%ebp)
  10319f:	83 45 f4 20          	addl   $0x20,-0xc(%ebp)
  1031a3:	83 7d 10 1f          	cmpl   $0x1f,0x10(%ebp)
  1031a7:	77 b1                	ja     10315a <memset+0x1ee>
  1031a9:	8b 45 08             	mov    0x8(%ebp),%eax
  1031ac:	83 c4 20             	add    $0x20,%esp
  1031af:	5b                   	pop    %ebx
  1031b0:	5e                   	pop    %esi
  1031b1:	5d                   	pop    %ebp
  1031b2:	c3                   	ret    

001031b3 <strcmp>:
  1031b3:	55                   	push   %ebp
  1031b4:	89 e5                	mov    %esp,%ebp
  1031b6:	eb 08                	jmp    1031c0 <strcmp+0xd>
  1031b8:	83 45 08 01          	addl   $0x1,0x8(%ebp)
  1031bc:	83 45 0c 01          	addl   $0x1,0xc(%ebp)
  1031c0:	8b 45 08             	mov    0x8(%ebp),%eax
  1031c3:	0f b6 10             	movzbl (%eax),%edx
  1031c6:	8b 45 0c             	mov    0xc(%ebp),%eax
  1031c9:	0f b6 00             	movzbl (%eax),%eax
  1031cc:	38 c2                	cmp    %al,%dl
  1031ce:	75 0a                	jne    1031da <strcmp+0x27>
  1031d0:	8b 45 08             	mov    0x8(%ebp),%eax
  1031d3:	0f b6 00             	movzbl (%eax),%eax
  1031d6:	84 c0                	test   %al,%al
  1031d8:	75 de                	jne    1031b8 <strcmp+0x5>
  1031da:	8b 45 08             	mov    0x8(%ebp),%eax
  1031dd:	0f b6 00             	movzbl (%eax),%eax
  1031e0:	0f b6 d0             	movzbl %al,%edx
  1031e3:	8b 45 0c             	mov    0xc(%ebp),%eax
  1031e6:	0f b6 00             	movzbl (%eax),%eax
  1031e9:	0f b6 c0             	movzbl %al,%eax
  1031ec:	29 c2                	sub    %eax,%edx
  1031ee:	89 d0                	mov    %edx,%eax
  1031f0:	5d                   	pop    %ebp
  1031f1:	c3                   	ret    

001031f2 <strcpy>:
  1031f2:	55                   	push   %ebp
  1031f3:	89 e5                	mov    %esp,%ebp
  1031f5:	83 ec 18             	sub    $0x18,%esp
  1031f8:	8b 45 0c             	mov    0xc(%ebp),%eax
  1031fb:	89 44 24 04          	mov    %eax,0x4(%esp)
  1031ff:	8b 45 08             	mov    0x8(%ebp),%eax
  103202:	89 04 24             	mov    %eax,(%esp)
  103205:	e8 f4 07 00 00       	call   1039fe <__stpcpy>
  10320a:	8b 45 08             	mov    0x8(%ebp),%eax
  10320d:	c9                   	leave  
  10320e:	c3                   	ret    

0010320f <strlen>:
  10320f:	55                   	push   %ebp
  103210:	89 e5                	mov    %esp,%ebp
  103212:	83 ec 10             	sub    $0x10,%esp
  103215:	8b 45 08             	mov    0x8(%ebp),%eax
  103218:	89 45 f8             	mov    %eax,-0x8(%ebp)
  10321b:	eb 1a                	jmp    103237 <strlen+0x28>
  10321d:	8b 45 08             	mov    0x8(%ebp),%eax
  103220:	0f b6 00             	movzbl (%eax),%eax
  103223:	84 c0                	test   %al,%al
  103225:	75 0c                	jne    103233 <strlen+0x24>
  103227:	8b 55 08             	mov    0x8(%ebp),%edx
  10322a:	8b 45 f8             	mov    -0x8(%ebp),%eax
  10322d:	29 c2                	sub    %eax,%edx
  10322f:	89 d0                	mov    %edx,%eax
  103231:	eb 57                	jmp    10328a <strlen+0x7b>
  103233:	83 45 08 01          	addl   $0x1,0x8(%ebp)
  103237:	8b 45 08             	mov    0x8(%ebp),%eax
  10323a:	83 e0 03             	and    $0x3,%eax
  10323d:	85 c0                	test   %eax,%eax
  10323f:	75 dc                	jne    10321d <strlen+0xe>
  103241:	8b 45 08             	mov    0x8(%ebp),%eax
  103244:	89 45 fc             	mov    %eax,-0x4(%ebp)
  103247:	eb 04                	jmp    10324d <strlen+0x3e>
  103249:	83 45 fc 04          	addl   $0x4,-0x4(%ebp)
  10324d:	8b 45 fc             	mov    -0x4(%ebp),%eax
  103250:	8b 00                	mov    (%eax),%eax
  103252:	8d 90 ff fe fe fe    	lea    -0x1010101(%eax),%edx
  103258:	8b 45 fc             	mov    -0x4(%ebp),%eax
  10325b:	8b 00                	mov    (%eax),%eax
  10325d:	f7 d0                	not    %eax
  10325f:	21 d0                	and    %edx,%eax
  103261:	25 80 80 80 80       	and    $0x80808080,%eax
  103266:	85 c0                	test   %eax,%eax
  103268:	74 df                	je     103249 <strlen+0x3a>
  10326a:	8b 45 fc             	mov    -0x4(%ebp),%eax
  10326d:	89 45 08             	mov    %eax,0x8(%ebp)
  103270:	eb 04                	jmp    103276 <strlen+0x67>
  103272:	83 45 08 01          	addl   $0x1,0x8(%ebp)
  103276:	8b 45 08             	mov    0x8(%ebp),%eax
  103279:	0f b6 00             	movzbl (%eax),%eax
  10327c:	84 c0                	test   %al,%al
  10327e:	75 f2                	jne    103272 <strlen+0x63>
  103280:	8b 55 08             	mov    0x8(%ebp),%edx
  103283:	8b 45 f8             	mov    -0x8(%ebp),%eax
  103286:	29 c2                	sub    %eax,%edx
  103288:	89 d0                	mov    %edx,%eax
  10328a:	c9                   	leave  
  10328b:	c3                   	ret    

0010328c <strncmp>:
  10328c:	55                   	push   %ebp
  10328d:	89 e5                	mov    %esp,%ebp
  10328f:	83 ec 10             	sub    $0x10,%esp
  103292:	8b 45 08             	mov    0x8(%ebp),%eax
  103295:	89 45 fc             	mov    %eax,-0x4(%ebp)
  103298:	8b 45 0c             	mov    0xc(%ebp),%eax
  10329b:	89 45 f8             	mov    %eax,-0x8(%ebp)
  10329e:	8b 45 10             	mov    0x10(%ebp),%eax
  1032a1:	8d 50 ff             	lea    -0x1(%eax),%edx
  1032a4:	89 55 10             	mov    %edx,0x10(%ebp)
  1032a7:	85 c0                	test   %eax,%eax
  1032a9:	75 07                	jne    1032b2 <strncmp+0x26>
  1032ab:	b8 00 00 00 00       	mov    $0x0,%eax
  1032b0:	eb 4e                	jmp    103300 <strncmp+0x74>
  1032b2:	eb 0c                	jmp    1032c0 <strncmp+0x34>
  1032b4:	83 45 fc 01          	addl   $0x1,-0x4(%ebp)
  1032b8:	83 45 f8 01          	addl   $0x1,-0x8(%ebp)
  1032bc:	83 6d 10 01          	subl   $0x1,0x10(%ebp)
  1032c0:	8b 45 fc             	mov    -0x4(%ebp),%eax
  1032c3:	0f b6 00             	movzbl (%eax),%eax
  1032c6:	84 c0                	test   %al,%al
  1032c8:	74 20                	je     1032ea <strncmp+0x5e>
  1032ca:	8b 45 f8             	mov    -0x8(%ebp),%eax
  1032cd:	0f b6 00             	movzbl (%eax),%eax
  1032d0:	84 c0                	test   %al,%al
  1032d2:	74 16                	je     1032ea <strncmp+0x5e>
  1032d4:	83 7d 10 00          	cmpl   $0x0,0x10(%ebp)
  1032d8:	74 10                	je     1032ea <strncmp+0x5e>
  1032da:	8b 45 fc             	mov    -0x4(%ebp),%eax
  1032dd:	0f b6 10             	movzbl (%eax),%edx
  1032e0:	8b 45 f8             	mov    -0x8(%ebp),%eax
  1032e3:	0f b6 00             	movzbl (%eax),%eax
  1032e6:	38 c2                	cmp    %al,%dl
  1032e8:	74 ca                	je     1032b4 <strncmp+0x28>
  1032ea:	8b 45 fc             	mov    -0x4(%ebp),%eax
  1032ed:	0f b6 00             	movzbl (%eax),%eax
  1032f0:	0f b6 d0             	movzbl %al,%edx
  1032f3:	8b 45 f8             	mov    -0x8(%ebp),%eax
  1032f6:	0f b6 00             	movzbl (%eax),%eax
  1032f9:	0f b6 c0             	movzbl %al,%eax
  1032fc:	29 c2                	sub    %eax,%edx
  1032fe:	89 d0                	mov    %edx,%eax
  103300:	c9                   	leave  
  103301:	c3                   	ret    

00103302 <memcpy>:
  103302:	55                   	push   %ebp
  103303:	89 e5                	mov    %esp,%ebp
  103305:	83 ec 10             	sub    $0x10,%esp
  103308:	8b 45 08             	mov    0x8(%ebp),%eax
  10330b:	89 45 fc             	mov    %eax,-0x4(%ebp)
  10330e:	8b 45 0c             	mov    0xc(%ebp),%eax
  103311:	89 45 f8             	mov    %eax,-0x8(%ebp)
  103314:	eb 1b                	jmp    103331 <memcpy+0x2f>
  103316:	8b 45 fc             	mov    -0x4(%ebp),%eax
  103319:	8d 50 01             	lea    0x1(%eax),%edx
  10331c:	89 55 fc             	mov    %edx,-0x4(%ebp)
  10331f:	8b 55 f8             	mov    -0x8(%ebp),%edx
  103322:	8d 4a 01             	lea    0x1(%edx),%ecx
  103325:	89 4d f8             	mov    %ecx,-0x8(%ebp)
  103328:	0f b6 12             	movzbl (%edx),%edx
  10332b:	88 10                	mov    %dl,(%eax)
  10332d:	83 6d 10 01          	subl   $0x1,0x10(%ebp)
  103331:	8b 45 f8             	mov    -0x8(%ebp),%eax
  103334:	83 e0 03             	and    $0x3,%eax
  103337:	85 c0                	test   %eax,%eax
  103339:	74 06                	je     103341 <memcpy+0x3f>
  10333b:	83 7d 10 00          	cmpl   $0x0,0x10(%ebp)
  10333f:	75 d5                	jne    103316 <memcpy+0x14>
  103341:	8b 45 fc             	mov    -0x4(%ebp),%eax
  103344:	83 e0 03             	and    $0x3,%eax
  103347:	85 c0                	test   %eax,%eax
  103349:	0f 85 e3 00 00 00    	jne    103432 <memcpy+0x130>
  10334f:	eb 40                	jmp    103391 <memcpy+0x8f>
  103351:	8b 45 f8             	mov    -0x8(%ebp),%eax
  103354:	8b 10                	mov    (%eax),%edx
  103356:	8b 45 fc             	mov    -0x4(%ebp),%eax
  103359:	89 10                	mov    %edx,(%eax)
  10335b:	8b 45 fc             	mov    -0x4(%ebp),%eax
  10335e:	8d 50 04             	lea    0x4(%eax),%edx
  103361:	8b 45 f8             	mov    -0x8(%ebp),%eax
  103364:	8b 40 04             	mov    0x4(%eax),%eax
  103367:	89 02                	mov    %eax,(%edx)
  103369:	8b 45 fc             	mov    -0x4(%ebp),%eax
  10336c:	8d 50 08             	lea    0x8(%eax),%edx
  10336f:	8b 45 f8             	mov    -0x8(%ebp),%eax
  103372:	8b 40 08             	mov    0x8(%eax),%eax
  103375:	89 02                	mov    %eax,(%edx)
  103377:	8b 45 fc             	mov    -0x4(%ebp),%eax
  10337a:	8d 50 0c             	lea    0xc(%eax),%edx
  10337d:	8b 45 f8             	mov    -0x8(%ebp),%eax
  103380:	8b 40 0c             	mov    0xc(%eax),%eax
  103383:	89 02                	mov    %eax,(%edx)
  103385:	83 45 f8 10          	addl   $0x10,-0x8(%ebp)
  103389:	83 45 fc 10          	addl   $0x10,-0x4(%ebp)
  10338d:	83 6d 10 10          	subl   $0x10,0x10(%ebp)
  103391:	83 7d 10 0f          	cmpl   $0xf,0x10(%ebp)
  103395:	77 ba                	ja     103351 <memcpy+0x4f>
  103397:	8b 45 10             	mov    0x10(%ebp),%eax
  10339a:	83 e0 08             	and    $0x8,%eax
  10339d:	85 c0                	test   %eax,%eax
  10339f:	74 20                	je     1033c1 <memcpy+0xbf>
  1033a1:	8b 45 f8             	mov    -0x8(%ebp),%eax
  1033a4:	8b 10                	mov    (%eax),%edx
  1033a6:	8b 45 fc             	mov    -0x4(%ebp),%eax
  1033a9:	89 10                	mov    %edx,(%eax)
  1033ab:	8b 45 fc             	mov    -0x4(%ebp),%eax
  1033ae:	8d 50 04             	lea    0x4(%eax),%edx
  1033b1:	8b 45 f8             	mov    -0x8(%ebp),%eax
  1033b4:	8b 40 04             	mov    0x4(%eax),%eax
  1033b7:	89 02                	mov    %eax,(%edx)
  1033b9:	83 45 fc 08          	addl   $0x8,-0x4(%ebp)
  1033bd:	83 45 f8 08          	addl   $0x8,-0x8(%ebp)
  1033c1:	8b 45 10             	mov    0x10(%ebp),%eax
  1033c4:	83 e0 04             	and    $0x4,%eax
  1033c7:	85 c0                	test   %eax,%eax
  1033c9:	74 12                	je     1033dd <memcpy+0xdb>
  1033cb:	8b 45 f8             	mov    -0x8(%ebp),%eax
  1033ce:	8b 10                	mov    (%eax),%edx
  1033d0:	8b 45 fc             	mov    -0x4(%ebp),%eax
  1033d3:	89 10                	mov    %edx,(%eax)
  1033d5:	83 45 fc 04          	addl   $0x4,-0x4(%ebp)
  1033d9:	83 45 f8 04          	addl   $0x4,-0x8(%ebp)
  1033dd:	8b 45 10             	mov    0x10(%ebp),%eax
  1033e0:	83 e0 02             	and    $0x2,%eax
  1033e3:	85 c0                	test   %eax,%eax
  1033e5:	74 2e                	je     103415 <memcpy+0x113>
  1033e7:	8b 45 fc             	mov    -0x4(%ebp),%eax
  1033ea:	8d 50 01             	lea    0x1(%eax),%edx
  1033ed:	89 55 fc             	mov    %edx,-0x4(%ebp)
  1033f0:	8b 55 f8             	mov    -0x8(%ebp),%edx
  1033f3:	8d 4a 01             	lea    0x1(%edx),%ecx
  1033f6:	89 4d f8             	mov    %ecx,-0x8(%ebp)
  1033f9:	0f b6 12             	movzbl (%edx),%edx
  1033fc:	88 10                	mov    %dl,(%eax)
  1033fe:	8b 45 fc             	mov    -0x4(%ebp),%eax
  103401:	8d 50 01             	lea    0x1(%eax),%edx
  103404:	89 55 fc             	mov    %edx,-0x4(%ebp)
  103407:	8b 55 f8             	mov    -0x8(%ebp),%edx
  10340a:	8d 4a 01             	lea    0x1(%edx),%ecx
  10340d:	89 4d f8             	mov    %ecx,-0x8(%ebp)
  103410:	0f b6 12             	movzbl (%edx),%edx
  103413:	88 10                	mov    %dl,(%eax)
  103415:	8b 45 10             	mov    0x10(%ebp),%eax
  103418:	83 e0 01             	and    $0x1,%eax
  10341b:	85 c0                	test   %eax,%eax
  10341d:	74 0b                	je     10342a <memcpy+0x128>
  10341f:	8b 45 f8             	mov    -0x8(%ebp),%eax
  103422:	0f b6 10             	movzbl (%eax),%edx
  103425:	8b 45 fc             	mov    -0x4(%ebp),%eax
  103428:	88 10                	mov    %dl,(%eax)
  10342a:	8b 45 08             	mov    0x8(%ebp),%eax
  10342d:	e9 ca 05 00 00       	jmp    1039fc <memcpy+0x6fa>
  103432:	83 7d 10 1f          	cmpl   $0x1f,0x10(%ebp)
  103436:	0f 86 c6 02 00 00    	jbe    103702 <memcpy+0x400>
  10343c:	8b 45 fc             	mov    -0x4(%ebp),%eax
  10343f:	83 e0 03             	and    $0x3,%eax
  103442:	83 f8 02             	cmp    $0x2,%eax
  103445:	0f 84 0c 01 00 00    	je     103557 <memcpy+0x255>
  10344b:	83 f8 03             	cmp    $0x3,%eax
  10344e:	0f 84 e6 01 00 00    	je     10363a <memcpy+0x338>
  103454:	83 f8 01             	cmp    $0x1,%eax
  103457:	0f 85 a5 02 00 00    	jne    103702 <memcpy+0x400>
  10345d:	8b 45 f8             	mov    -0x8(%ebp),%eax
  103460:	8b 00                	mov    (%eax),%eax
  103462:	89 45 f4             	mov    %eax,-0xc(%ebp)
  103465:	8b 45 fc             	mov    -0x4(%ebp),%eax
  103468:	8d 50 01             	lea    0x1(%eax),%edx
  10346b:	89 55 fc             	mov    %edx,-0x4(%ebp)
  10346e:	8b 55 f8             	mov    -0x8(%ebp),%edx
  103471:	8d 4a 01             	lea    0x1(%edx),%ecx
  103474:	89 4d f8             	mov    %ecx,-0x8(%ebp)
  103477:	0f b6 12             	movzbl (%edx),%edx
  10347a:	88 10                	mov    %dl,(%eax)
  10347c:	8b 45 fc             	mov    -0x4(%ebp),%eax
  10347f:	8d 50 01             	lea    0x1(%eax),%edx
  103482:	89 55 fc             	mov    %edx,-0x4(%ebp)
  103485:	8b 55 f8             	mov    -0x8(%ebp),%edx
  103488:	8d 4a 01             	lea    0x1(%edx),%ecx
  10348b:	89 4d f8             	mov    %ecx,-0x8(%ebp)
  10348e:	0f b6 12             	movzbl (%edx),%edx
  103491:	88 10                	mov    %dl,(%eax)
  103493:	8b 45 fc             	mov    -0x4(%ebp),%eax
  103496:	8d 50 01             	lea    0x1(%eax),%edx
  103499:	89 55 fc             	mov    %edx,-0x4(%ebp)
  10349c:	8b 55 f8             	mov    -0x8(%ebp),%edx
  10349f:	8d 4a 01             	lea    0x1(%edx),%ecx
  1034a2:	89 4d f8             	mov    %ecx,-0x8(%ebp)
  1034a5:	0f b6 12             	movzbl (%edx),%edx
  1034a8:	88 10                	mov    %dl,(%eax)
  1034aa:	83 6d 10 03          	subl   $0x3,0x10(%ebp)
  1034ae:	e9 95 00 00 00       	jmp    103548 <memcpy+0x246>
  1034b3:	8b 45 f8             	mov    -0x8(%ebp),%eax
  1034b6:	83 c0 01             	add    $0x1,%eax
  1034b9:	8b 00                	mov    (%eax),%eax
  1034bb:	89 45 f0             	mov    %eax,-0x10(%ebp)
  1034be:	8b 45 f4             	mov    -0xc(%ebp),%eax
  1034c1:	c1 e8 18             	shr    $0x18,%eax
  1034c4:	89 c2                	mov    %eax,%edx
  1034c6:	8b 45 f0             	mov    -0x10(%ebp),%eax
  1034c9:	c1 e0 08             	shl    $0x8,%eax
  1034cc:	09 c2                	or     %eax,%edx
  1034ce:	8b 45 fc             	mov    -0x4(%ebp),%eax
  1034d1:	89 10                	mov    %edx,(%eax)
  1034d3:	8b 45 f8             	mov    -0x8(%ebp),%eax
  1034d6:	83 c0 05             	add    $0x5,%eax
  1034d9:	8b 00                	mov    (%eax),%eax
  1034db:	89 45 f4             	mov    %eax,-0xc(%ebp)
  1034de:	8b 45 fc             	mov    -0x4(%ebp),%eax
  1034e1:	83 c0 04             	add    $0x4,%eax
  1034e4:	8b 55 f0             	mov    -0x10(%ebp),%edx
  1034e7:	89 d1                	mov    %edx,%ecx
  1034e9:	c1 e9 18             	shr    $0x18,%ecx
  1034ec:	8b 55 f4             	mov    -0xc(%ebp),%edx
  1034ef:	c1 e2 08             	shl    $0x8,%edx
  1034f2:	09 ca                	or     %ecx,%edx
  1034f4:	89 10                	mov    %edx,(%eax)
  1034f6:	8b 45 f8             	mov    -0x8(%ebp),%eax
  1034f9:	83 c0 09             	add    $0x9,%eax
  1034fc:	8b 00                	mov    (%eax),%eax
  1034fe:	89 45 f0             	mov    %eax,-0x10(%ebp)
  103501:	8b 45 fc             	mov    -0x4(%ebp),%eax
  103504:	83 c0 08             	add    $0x8,%eax
  103507:	8b 55 f4             	mov    -0xc(%ebp),%edx
  10350a:	89 d1                	mov    %edx,%ecx
  10350c:	c1 e9 18             	shr    $0x18,%ecx
  10350f:	8b 55 f0             	mov    -0x10(%ebp),%edx
  103512:	c1 e2 08             	shl    $0x8,%edx
  103515:	09 ca                	or     %ecx,%edx
  103517:	89 10                	mov    %edx,(%eax)
  103519:	8b 45 f8             	mov    -0x8(%ebp),%eax
  10351c:	83 c0 0d             	add    $0xd,%eax
  10351f:	8b 00                	mov    (%eax),%eax
  103521:	89 45 f4             	mov    %eax,-0xc(%ebp)
  103524:	8b 45 fc             	mov    -0x4(%ebp),%eax
  103527:	83 c0 0c             	add    $0xc,%eax
  10352a:	8b 55 f0             	mov    -0x10(%ebp),%edx
  10352d:	89 d1                	mov    %edx,%ecx
  10352f:	c1 e9 18             	shr    $0x18,%ecx
  103532:	8b 55 f4             	mov    -0xc(%ebp),%edx
  103535:	c1 e2 08             	shl    $0x8,%edx
  103538:	09 ca                	or     %ecx,%edx
  10353a:	89 10                	mov    %edx,(%eax)
  10353c:	83 45 f8 10          	addl   $0x10,-0x8(%ebp)
  103540:	83 45 fc 10          	addl   $0x10,-0x4(%ebp)
  103544:	83 6d 10 10          	subl   $0x10,0x10(%ebp)
  103548:	83 7d 10 10          	cmpl   $0x10,0x10(%ebp)
  10354c:	0f 87 61 ff ff ff    	ja     1034b3 <memcpy+0x1b1>
  103552:	e9 ab 01 00 00       	jmp    103702 <memcpy+0x400>
  103557:	8b 45 f8             	mov    -0x8(%ebp),%eax
  10355a:	8b 00                	mov    (%eax),%eax
  10355c:	89 45 f4             	mov    %eax,-0xc(%ebp)
  10355f:	8b 45 fc             	mov    -0x4(%ebp),%eax
  103562:	8d 50 01             	lea    0x1(%eax),%edx
  103565:	89 55 fc             	mov    %edx,-0x4(%ebp)
  103568:	8b 55 f8             	mov    -0x8(%ebp),%edx
  10356b:	8d 4a 01             	lea    0x1(%edx),%ecx
  10356e:	89 4d f8             	mov    %ecx,-0x8(%ebp)
  103571:	0f b6 12             	movzbl (%edx),%edx
  103574:	88 10                	mov    %dl,(%eax)
  103576:	8b 45 fc             	mov    -0x4(%ebp),%eax
  103579:	8d 50 01             	lea    0x1(%eax),%edx
  10357c:	89 55 fc             	mov    %edx,-0x4(%ebp)
  10357f:	8b 55 f8             	mov    -0x8(%ebp),%edx
  103582:	8d 4a 01             	lea    0x1(%edx),%ecx
  103585:	89 4d f8             	mov    %ecx,-0x8(%ebp)
  103588:	0f b6 12             	movzbl (%edx),%edx
  10358b:	88 10                	mov    %dl,(%eax)
  10358d:	83 6d 10 02          	subl   $0x2,0x10(%ebp)
  103591:	e9 95 00 00 00       	jmp    10362b <memcpy+0x329>
  103596:	8b 45 f8             	mov    -0x8(%ebp),%eax
  103599:	83 c0 02             	add    $0x2,%eax
  10359c:	8b 00                	mov    (%eax),%eax
  10359e:	89 45 f0             	mov    %eax,-0x10(%ebp)
  1035a1:	8b 45 f4             	mov    -0xc(%ebp),%eax
  1035a4:	c1 e8 10             	shr    $0x10,%eax
  1035a7:	89 c2                	mov    %eax,%edx
  1035a9:	8b 45 f0             	mov    -0x10(%ebp),%eax
  1035ac:	c1 e0 10             	shl    $0x10,%eax
  1035af:	09 c2                	or     %eax,%edx
  1035b1:	8b 45 fc             	mov    -0x4(%ebp),%eax
  1035b4:	89 10                	mov    %edx,(%eax)
  1035b6:	8b 45 f8             	mov    -0x8(%ebp),%eax
  1035b9:	83 c0 06             	add    $0x6,%eax
  1035bc:	8b 00                	mov    (%eax),%eax
  1035be:	89 45 f4             	mov    %eax,-0xc(%ebp)
  1035c1:	8b 45 fc             	mov    -0x4(%ebp),%eax
  1035c4:	83 c0 04             	add    $0x4,%eax
  1035c7:	8b 55 f0             	mov    -0x10(%ebp),%edx
  1035ca:	89 d1                	mov    %edx,%ecx
  1035cc:	c1 e9 10             	shr    $0x10,%ecx
  1035cf:	8b 55 f4             	mov    -0xc(%ebp),%edx
  1035d2:	c1 e2 10             	shl    $0x10,%edx
  1035d5:	09 ca                	or     %ecx,%edx
  1035d7:	89 10                	mov    %edx,(%eax)
  1035d9:	8b 45 f8             	mov    -0x8(%ebp),%eax
  1035dc:	83 c0 0a             	add    $0xa,%eax
  1035df:	8b 00                	mov    (%eax),%eax
  1035e1:	89 45 f0             	mov    %eax,-0x10(%ebp)
  1035e4:	8b 45 fc             	mov    -0x4(%ebp),%eax
  1035e7:	83 c0 08             	add    $0x8,%eax
  1035ea:	8b 55 f4             	mov    -0xc(%ebp),%edx
  1035ed:	89 d1                	mov    %edx,%ecx
  1035ef:	c1 e9 10             	shr    $0x10,%ecx
  1035f2:	8b 55 f0             	mov    -0x10(%ebp),%edx
  1035f5:	c1 e2 10             	shl    $0x10,%edx
  1035f8:	09 ca                	or     %ecx,%edx
  1035fa:	89 10                	mov    %edx,(%eax)
  1035fc:	8b 45 f8             	mov    -0x8(%ebp),%eax
  1035ff:	83 c0 0e             	add    $0xe,%eax
  103602:	8b 00                	mov    (%eax),%eax
  103604:	89 45 f4             	mov    %eax,-0xc(%ebp)
  103607:	8b 45 fc             	mov    -0x4(%ebp),%eax
  10360a:	83 c0 0c             	add    $0xc,%eax
  10360d:	8b 55 f0             	mov    -0x10(%ebp),%edx
  103610:	89 d1                	mov    %edx,%ecx
  103612:	c1 e9 10             	shr    $0x10,%ecx
  103615:	8b 55 f4             	mov    -0xc(%ebp),%edx
  103618:	c1 e2 10             	shl    $0x10,%edx
  10361b:	09 ca                	or     %ecx,%edx
  10361d:	89 10                	mov    %edx,(%eax)
  10361f:	83 45 f8 10          	addl   $0x10,-0x8(%ebp)
  103623:	83 45 fc 10          	addl   $0x10,-0x4(%ebp)
  103627:	83 6d 10 10          	subl   $0x10,0x10(%ebp)
  10362b:	83 7d 10 11          	cmpl   $0x11,0x10(%ebp)
  10362f:	0f 87 61 ff ff ff    	ja     103596 <memcpy+0x294>
  103635:	e9 c8 00 00 00       	jmp    103702 <memcpy+0x400>
  10363a:	8b 45 f8             	mov    -0x8(%ebp),%eax
  10363d:	8b 00                	mov    (%eax),%eax
  10363f:	89 45 f4             	mov    %eax,-0xc(%ebp)
  103642:	8b 45 fc             	mov    -0x4(%ebp),%eax
  103645:	8d 50 01             	lea    0x1(%eax),%edx
  103648:	89 55 fc             	mov    %edx,-0x4(%ebp)
  10364b:	8b 55 f8             	mov    -0x8(%ebp),%edx
  10364e:	8d 4a 01             	lea    0x1(%edx),%ecx
  103651:	89 4d f8             	mov    %ecx,-0x8(%ebp)
  103654:	0f b6 12             	movzbl (%edx),%edx
  103657:	88 10                	mov    %dl,(%eax)
  103659:	83 6d 10 01          	subl   $0x1,0x10(%ebp)
  10365d:	e9 95 00 00 00       	jmp    1036f7 <memcpy+0x3f5>
  103662:	8b 45 f8             	mov    -0x8(%ebp),%eax
  103665:	83 c0 03             	add    $0x3,%eax
  103668:	8b 00                	mov    (%eax),%eax
  10366a:	89 45 f0             	mov    %eax,-0x10(%ebp)
  10366d:	8b 45 f4             	mov    -0xc(%ebp),%eax
  103670:	c1 e8 08             	shr    $0x8,%eax
  103673:	89 c2                	mov    %eax,%edx
  103675:	8b 45 f0             	mov    -0x10(%ebp),%eax
  103678:	c1 e0 18             	shl    $0x18,%eax
  10367b:	09 c2                	or     %eax,%edx
  10367d:	8b 45 fc             	mov    -0x4(%ebp),%eax
  103680:	89 10                	mov    %edx,(%eax)
  103682:	8b 45 f8             	mov    -0x8(%ebp),%eax
  103685:	83 c0 07             	add    $0x7,%eax
  103688:	8b 00                	mov    (%eax),%eax
  10368a:	89 45 f4             	mov    %eax,-0xc(%ebp)
  10368d:	8b 45 fc             	mov    -0x4(%ebp),%eax
  103690:	83 c0 04             	add    $0x4,%eax
  103693:	8b 55 f0             	mov    -0x10(%ebp),%edx
  103696:	89 d1                	mov    %edx,%ecx
  103698:	c1 e9 08             	shr    $0x8,%ecx
  10369b:	8b 55 f4             	mov    -0xc(%ebp),%edx
  10369e:	c1 e2 18             	shl    $0x18,%edx
  1036a1:	09 ca                	or     %ecx,%edx
  1036a3:	89 10                	mov    %edx,(%eax)
  1036a5:	8b 45 f8             	mov    -0x8(%ebp),%eax
  1036a8:	83 c0 0b             	add    $0xb,%eax
  1036ab:	8b 00                	mov    (%eax),%eax
  1036ad:	89 45 f0             	mov    %eax,-0x10(%ebp)
  1036b0:	8b 45 fc             	mov    -0x4(%ebp),%eax
  1036b3:	83 c0 08             	add    $0x8,%eax
  1036b6:	8b 55 f4             	mov    -0xc(%ebp),%edx
  1036b9:	89 d1                	mov    %edx,%ecx
  1036bb:	c1 e9 08             	shr    $0x8,%ecx
  1036be:	8b 55 f0             	mov    -0x10(%ebp),%edx
  1036c1:	c1 e2 18             	shl    $0x18,%edx
  1036c4:	09 ca                	or     %ecx,%edx
  1036c6:	89 10                	mov    %edx,(%eax)
  1036c8:	8b 45 f8             	mov    -0x8(%ebp),%eax
  1036cb:	83 c0 0f             	add    $0xf,%eax
  1036ce:	8b 00                	mov    (%eax),%eax
  1036d0:	89 45 f4             	mov    %eax,-0xc(%ebp)
  1036d3:	8b 45 fc             	mov    -0x4(%ebp),%eax
  1036d6:	83 c0 0c             	add    $0xc,%eax
  1036d9:	8b 55 f0             	mov    -0x10(%ebp),%edx
  1036dc:	89 d1                	mov    %edx,%ecx
  1036de:	c1 e9 08             	shr    $0x8,%ecx
  1036e1:	8b 55 f4             	mov    -0xc(%ebp),%edx
  1036e4:	c1 e2 18             	shl    $0x18,%edx
  1036e7:	09 ca                	or     %ecx,%edx
  1036e9:	89 10                	mov    %edx,(%eax)
  1036eb:	83 45 f8 10          	addl   $0x10,-0x8(%ebp)
  1036ef:	83 45 fc 10          	addl   $0x10,-0x4(%ebp)
  1036f3:	83 6d 10 10          	subl   $0x10,0x10(%ebp)
  1036f7:	83 7d 10 12          	cmpl   $0x12,0x10(%ebp)
  1036fb:	0f 87 61 ff ff ff    	ja     103662 <memcpy+0x360>
  103701:	90                   	nop
  103702:	8b 45 10             	mov    0x10(%ebp),%eax
  103705:	83 e0 10             	and    $0x10,%eax
  103708:	85 c0                	test   %eax,%eax
  10370a:	0f 84 70 01 00 00    	je     103880 <memcpy+0x57e>
  103710:	8b 45 fc             	mov    -0x4(%ebp),%eax
  103713:	8d 50 01             	lea    0x1(%eax),%edx
  103716:	89 55 fc             	mov    %edx,-0x4(%ebp)
  103719:	8b 55 f8             	mov    -0x8(%ebp),%edx
  10371c:	8d 4a 01             	lea    0x1(%edx),%ecx
  10371f:	89 4d f8             	mov    %ecx,-0x8(%ebp)
  103722:	0f b6 12             	movzbl (%edx),%edx
  103725:	88 10                	mov    %dl,(%eax)
  103727:	8b 45 fc             	mov    -0x4(%ebp),%eax
  10372a:	8d 50 01             	lea    0x1(%eax),%edx
  10372d:	89 55 fc             	mov    %edx,-0x4(%ebp)
  103730:	8b 55 f8             	mov    -0x8(%ebp),%edx
  103733:	8d 4a 01             	lea    0x1(%edx),%ecx
  103736:	89 4d f8             	mov    %ecx,-0x8(%ebp)
  103739:	0f b6 12             	movzbl (%edx),%edx
  10373c:	88 10                	mov    %dl,(%eax)
  10373e:	8b 45 fc             	mov    -0x4(%ebp),%eax
  103741:	8d 50 01             	lea    0x1(%eax),%edx
  103744:	89 55 fc             	mov    %edx,-0x4(%ebp)
  103747:	8b 55 f8             	mov    -0x8(%ebp),%edx
  10374a:	8d 4a 01             	lea    0x1(%edx),%ecx
  10374d:	89 4d f8             	mov    %ecx,-0x8(%ebp)
  103750:	0f b6 12             	movzbl (%edx),%edx
  103753:	88 10                	mov    %dl,(%eax)
  103755:	8b 45 fc             	mov    -0x4(%ebp),%eax
  103758:	8d 50 01             	lea    0x1(%eax),%edx
  10375b:	89 55 fc             	mov    %edx,-0x4(%ebp)
  10375e:	8b 55 f8             	mov    -0x8(%ebp),%edx
  103761:	8d 4a 01             	lea    0x1(%edx),%ecx
  103764:	89 4d f8             	mov    %ecx,-0x8(%ebp)
  103767:	0f b6 12             	movzbl (%edx),%edx
  10376a:	88 10                	mov    %dl,(%eax)
  10376c:	8b 45 fc             	mov    -0x4(%ebp),%eax
  10376f:	8d 50 01             	lea    0x1(%eax),%edx
  103772:	89 55 fc             	mov    %edx,-0x4(%ebp)
  103775:	8b 55 f8             	mov    -0x8(%ebp),%edx
  103778:	8d 4a 01             	lea    0x1(%edx),%ecx
  10377b:	89 4d f8             	mov    %ecx,-0x8(%ebp)
  10377e:	0f b6 12             	movzbl (%edx),%edx
  103781:	88 10                	mov    %dl,(%eax)
  103783:	8b 45 fc             	mov    -0x4(%ebp),%eax
  103786:	8d 50 01             	lea    0x1(%eax),%edx
  103789:	89 55 fc             	mov    %edx,-0x4(%ebp)
  10378c:	8b 55 f8             	mov    -0x8(%ebp),%edx
  10378f:	8d 4a 01             	lea    0x1(%edx),%ecx
  103792:	89 4d f8             	mov    %ecx,-0x8(%ebp)
  103795:	0f b6 12             	movzbl (%edx),%edx
  103798:	88 10                	mov    %dl,(%eax)
  10379a:	8b 45 fc             	mov    -0x4(%ebp),%eax
  10379d:	8d 50 01             	lea    0x1(%eax),%edx
  1037a0:	89 55 fc             	mov    %edx,-0x4(%ebp)
  1037a3:	8b 55 f8             	mov    -0x8(%ebp),%edx
  1037a6:	8d 4a 01             	lea    0x1(%edx),%ecx
  1037a9:	89 4d f8             	mov    %ecx,-0x8(%ebp)
  1037ac:	0f b6 12             	movzbl (%edx),%edx
  1037af:	88 10                	mov    %dl,(%eax)
  1037b1:	8b 45 fc             	mov    -0x4(%ebp),%eax
  1037b4:	8d 50 01             	lea    0x1(%eax),%edx
  1037b7:	89 55 fc             	mov    %edx,-0x4(%ebp)
  1037ba:	8b 55 f8             	mov    -0x8(%ebp),%edx
  1037bd:	8d 4a 01             	lea    0x1(%edx),%ecx
  1037c0:	89 4d f8             	mov    %ecx,-0x8(%ebp)
  1037c3:	0f b6 12             	movzbl (%edx),%edx
  1037c6:	88 10                	mov    %dl,(%eax)
  1037c8:	8b 45 fc             	mov    -0x4(%ebp),%eax
  1037cb:	8d 50 01             	lea    0x1(%eax),%edx
  1037ce:	89 55 fc             	mov    %edx,-0x4(%ebp)
  1037d1:	8b 55 f8             	mov    -0x8(%ebp),%edx
  1037d4:	8d 4a 01             	lea    0x1(%edx),%ecx
  1037d7:	89 4d f8             	mov    %ecx,-0x8(%ebp)
  1037da:	0f b6 12             	movzbl (%edx),%edx
  1037dd:	88 10                	mov    %dl,(%eax)
  1037df:	8b 45 fc             	mov    -0x4(%ebp),%eax
  1037e2:	8d 50 01             	lea    0x1(%eax),%edx
  1037e5:	89 55 fc             	mov    %edx,-0x4(%ebp)
  1037e8:	8b 55 f8             	mov    -0x8(%ebp),%edx
  1037eb:	8d 4a 01             	lea    0x1(%edx),%ecx
  1037ee:	89 4d f8             	mov    %ecx,-0x8(%ebp)
  1037f1:	0f b6 12             	movzbl (%edx),%edx
  1037f4:	88 10                	mov    %dl,(%eax)
  1037f6:	8b 45 fc             	mov    -0x4(%ebp),%eax
  1037f9:	8d 50 01             	lea    0x1(%eax),%edx
  1037fc:	89 55 fc             	mov    %edx,-0x4(%ebp)
  1037ff:	8b 55 f8             	mov    -0x8(%ebp),%edx
  103802:	8d 4a 01             	lea    0x1(%edx),%ecx
  103805:	89 4d f8             	mov    %ecx,-0x8(%ebp)
  103808:	0f b6 12             	movzbl (%edx),%edx
  10380b:	88 10                	mov    %dl,(%eax)
  10380d:	8b 45 fc             	mov    -0x4(%ebp),%eax
  103810:	8d 50 01             	lea    0x1(%eax),%edx
  103813:	89 55 fc             	mov    %edx,-0x4(%ebp)
  103816:	8b 55 f8             	mov    -0x8(%ebp),%edx
  103819:	8d 4a 01             	lea    0x1(%edx),%ecx
  10381c:	89 4d f8             	mov    %ecx,-0x8(%ebp)
  10381f:	0f b6 12             	movzbl (%edx),%edx
  103822:	88 10                	mov    %dl,(%eax)
  103824:	8b 45 fc             	mov    -0x4(%ebp),%eax
  103827:	8d 50 01             	lea    0x1(%eax),%edx
  10382a:	89 55 fc             	mov    %edx,-0x4(%ebp)
  10382d:	8b 55 f8             	mov    -0x8(%ebp),%edx
  103830:	8d 4a 01             	lea    0x1(%edx),%ecx
  103833:	89 4d f8             	mov    %ecx,-0x8(%ebp)
  103836:	0f b6 12             	movzbl (%edx),%edx
  103839:	88 10                	mov    %dl,(%eax)
  10383b:	8b 45 fc             	mov    -0x4(%ebp),%eax
  10383e:	8d 50 01             	lea    0x1(%eax),%edx
  103841:	89 55 fc             	mov    %edx,-0x4(%ebp)
  103844:	8b 55 f8             	mov    -0x8(%ebp),%edx
  103847:	8d 4a 01             	lea    0x1(%edx),%ecx
  10384a:	89 4d f8             	mov    %ecx,-0x8(%ebp)
  10384d:	0f b6 12             	movzbl (%edx),%edx
  103850:	88 10                	mov    %dl,(%eax)
  103852:	8b 45 fc             	mov    -0x4(%ebp),%eax
  103855:	8d 50 01             	lea    0x1(%eax),%edx
  103858:	89 55 fc             	mov    %edx,-0x4(%ebp)
  10385b:	8b 55 f8             	mov    -0x8(%ebp),%edx
  10385e:	8d 4a 01             	lea    0x1(%edx),%ecx
  103861:	89 4d f8             	mov    %ecx,-0x8(%ebp)
  103864:	0f b6 12             	movzbl (%edx),%edx
  103867:	88 10                	mov    %dl,(%eax)
  103869:	8b 45 fc             	mov    -0x4(%ebp),%eax
  10386c:	8d 50 01             	lea    0x1(%eax),%edx
  10386f:	89 55 fc             	mov    %edx,-0x4(%ebp)
  103872:	8b 55 f8             	mov    -0x8(%ebp),%edx
  103875:	8d 4a 01             	lea    0x1(%edx),%ecx
  103878:	89 4d f8             	mov    %ecx,-0x8(%ebp)
  10387b:	0f b6 12             	movzbl (%edx),%edx
  10387e:	88 10                	mov    %dl,(%eax)
  103880:	8b 45 10             	mov    0x10(%ebp),%eax
  103883:	83 e0 08             	and    $0x8,%eax
  103886:	85 c0                	test   %eax,%eax
  103888:	0f 84 b8 00 00 00    	je     103946 <memcpy+0x644>
  10388e:	8b 45 fc             	mov    -0x4(%ebp),%eax
  103891:	8d 50 01             	lea    0x1(%eax),%edx
  103894:	89 55 fc             	mov    %edx,-0x4(%ebp)
  103897:	8b 55 f8             	mov    -0x8(%ebp),%edx
  10389a:	8d 4a 01             	lea    0x1(%edx),%ecx
  10389d:	89 4d f8             	mov    %ecx,-0x8(%ebp)
  1038a0:	0f b6 12             	movzbl (%edx),%edx
  1038a3:	88 10                	mov    %dl,(%eax)
  1038a5:	8b 45 fc             	mov    -0x4(%ebp),%eax
  1038a8:	8d 50 01             	lea    0x1(%eax),%edx
  1038ab:	89 55 fc             	mov    %edx,-0x4(%ebp)
  1038ae:	8b 55 f8             	mov    -0x8(%ebp),%edx
  1038b1:	8d 4a 01             	lea    0x1(%edx),%ecx
  1038b4:	89 4d f8             	mov    %ecx,-0x8(%ebp)
  1038b7:	0f b6 12             	movzbl (%edx),%edx
  1038ba:	88 10                	mov    %dl,(%eax)
  1038bc:	8b 45 fc             	mov    -0x4(%ebp),%eax
  1038bf:	8d 50 01             	lea    0x1(%eax),%edx
  1038c2:	89 55 fc             	mov    %edx,-0x4(%ebp)
  1038c5:	8b 55 f8             	mov    -0x8(%ebp),%edx
  1038c8:	8d 4a 01             	lea    0x1(%edx),%ecx
  1038cb:	89 4d f8             	mov    %ecx,-0x8(%ebp)
  1038ce:	0f b6 12             	movzbl (%edx),%edx
  1038d1:	88 10                	mov    %dl,(%eax)
  1038d3:	8b 45 fc             	mov    -0x4(%ebp),%eax
  1038d6:	8d 50 01             	lea    0x1(%eax),%edx
  1038d9:	89 55 fc             	mov    %edx,-0x4(%ebp)
  1038dc:	8b 55 f8             	mov    -0x8(%ebp),%edx
  1038df:	8d 4a 01             	lea    0x1(%edx),%ecx
  1038e2:	89 4d f8             	mov    %ecx,-0x8(%ebp)
  1038e5:	0f b6 12             	movzbl (%edx),%edx
  1038e8:	88 10                	mov    %dl,(%eax)
  1038ea:	8b 45 fc             	mov    -0x4(%ebp),%eax
  1038ed:	8d 50 01             	lea    0x1(%eax),%edx
  1038f0:	89 55 fc             	mov    %edx,-0x4(%ebp)
  1038f3:	8b 55 f8             	mov    -0x8(%ebp),%edx
  1038f6:	8d 4a 01             	lea    0x1(%edx),%ecx
  1038f9:	89 4d f8             	mov    %ecx,-0x8(%ebp)
  1038fc:	0f b6 12             	movzbl (%edx),%edx
  1038ff:	88 10                	mov    %dl,(%eax)
  103901:	8b 45 fc             	mov    -0x4(%ebp),%eax
  103904:	8d 50 01             	lea    0x1(%eax),%edx
  103907:	89 55 fc             	mov    %edx,-0x4(%ebp)
  10390a:	8b 55 f8             	mov    -0x8(%ebp),%edx
  10390d:	8d 4a 01             	lea    0x1(%edx),%ecx
  103910:	89 4d f8             	mov    %ecx,-0x8(%ebp)
  103913:	0f b6 12             	movzbl (%edx),%edx
  103916:	88 10                	mov    %dl,(%eax)
  103918:	8b 45 fc             	mov    -0x4(%ebp),%eax
  10391b:	8d 50 01             	lea    0x1(%eax),%edx
  10391e:	89 55 fc             	mov    %edx,-0x4(%ebp)
  103921:	8b 55 f8             	mov    -0x8(%ebp),%edx
  103924:	8d 4a 01             	lea    0x1(%edx),%ecx
  103927:	89 4d f8             	mov    %ecx,-0x8(%ebp)
  10392a:	0f b6 12             	movzbl (%edx),%edx
  10392d:	88 10                	mov    %dl,(%eax)
  10392f:	8b 45 fc             	mov    -0x4(%ebp),%eax
  103932:	8d 50 01             	lea    0x1(%eax),%edx
  103935:	89 55 fc             	mov    %edx,-0x4(%ebp)
  103938:	8b 55 f8             	mov    -0x8(%ebp),%edx
  10393b:	8d 4a 01             	lea    0x1(%edx),%ecx
  10393e:	89 4d f8             	mov    %ecx,-0x8(%ebp)
  103941:	0f b6 12             	movzbl (%edx),%edx
  103944:	88 10                	mov    %dl,(%eax)
  103946:	8b 45 10             	mov    0x10(%ebp),%eax
  103949:	83 e0 04             	and    $0x4,%eax
  10394c:	85 c0                	test   %eax,%eax
  10394e:	74 5c                	je     1039ac <memcpy+0x6aa>
  103950:	8b 45 fc             	mov    -0x4(%ebp),%eax
  103953:	8d 50 01             	lea    0x1(%eax),%edx
  103956:	89 55 fc             	mov    %edx,-0x4(%ebp)
  103959:	8b 55 f8             	mov    -0x8(%ebp),%edx
  10395c:	8d 4a 01             	lea    0x1(%edx),%ecx
  10395f:	89 4d f8             	mov    %ecx,-0x8(%ebp)
  103962:	0f b6 12             	movzbl (%edx),%edx
  103965:	88 10                	mov    %dl,(%eax)
  103967:	8b 45 fc             	mov    -0x4(%ebp),%eax
  10396a:	8d 50 01             	lea    0x1(%eax),%edx
  10396d:	89 55 fc             	mov    %edx,-0x4(%ebp)
  103970:	8b 55 f8             	mov    -0x8(%ebp),%edx
  103973:	8d 4a 01             	lea    0x1(%edx),%ecx
  103976:	89 4d f8             	mov    %ecx,-0x8(%ebp)
  103979:	0f b6 12             	movzbl (%edx),%edx
  10397c:	88 10                	mov    %dl,(%eax)
  10397e:	8b 45 fc             	mov    -0x4(%ebp),%eax
  103981:	8d 50 01             	lea    0x1(%eax),%edx
  103984:	89 55 fc             	mov    %edx,-0x4(%ebp)
  103987:	8b 55 f8             	mov    -0x8(%ebp),%edx
  10398a:	8d 4a 01             	lea    0x1(%edx),%ecx
  10398d:	89 4d f8             	mov    %ecx,-0x8(%ebp)
  103990:	0f b6 12             	movzbl (%edx),%edx
  103993:	88 10                	mov    %dl,(%eax)
  103995:	8b 45 fc             	mov    -0x4(%ebp),%eax
  103998:	8d 50 01             	lea    0x1(%eax),%edx
  10399b:	89 55 fc             	mov    %edx,-0x4(%ebp)
  10399e:	8b 55 f8             	mov    -0x8(%ebp),%edx
  1039a1:	8d 4a 01             	lea    0x1(%edx),%ecx
  1039a4:	89 4d f8             	mov    %ecx,-0x8(%ebp)
  1039a7:	0f b6 12             	movzbl (%edx),%edx
  1039aa:	88 10                	mov    %dl,(%eax)
  1039ac:	8b 45 10             	mov    0x10(%ebp),%eax
  1039af:	83 e0 02             	and    $0x2,%eax
  1039b2:	85 c0                	test   %eax,%eax
  1039b4:	74 2e                	je     1039e4 <memcpy+0x6e2>
  1039b6:	8b 45 fc             	mov    -0x4(%ebp),%eax
  1039b9:	8d 50 01             	lea    0x1(%eax),%edx
  1039bc:	89 55 fc             	mov    %edx,-0x4(%ebp)
  1039bf:	8b 55 f8             	mov    -0x8(%ebp),%edx
  1039c2:	8d 4a 01             	lea    0x1(%edx),%ecx
  1039c5:	89 4d f8             	mov    %ecx,-0x8(%ebp)
  1039c8:	0f b6 12             	movzbl (%edx),%edx
  1039cb:	88 10                	mov    %dl,(%eax)
  1039cd:	8b 45 fc             	mov    -0x4(%ebp),%eax
  1039d0:	8d 50 01             	lea    0x1(%eax),%edx
  1039d3:	89 55 fc             	mov    %edx,-0x4(%ebp)
  1039d6:	8b 55 f8             	mov    -0x8(%ebp),%edx
  1039d9:	8d 4a 01             	lea    0x1(%edx),%ecx
  1039dc:	89 4d f8             	mov    %ecx,-0x8(%ebp)
  1039df:	0f b6 12             	movzbl (%edx),%edx
  1039e2:	88 10                	mov    %dl,(%eax)
  1039e4:	8b 45 10             	mov    0x10(%ebp),%eax
  1039e7:	83 e0 01             	and    $0x1,%eax
  1039ea:	85 c0                	test   %eax,%eax
  1039ec:	74 0b                	je     1039f9 <memcpy+0x6f7>
  1039ee:	8b 45 f8             	mov    -0x8(%ebp),%eax
  1039f1:	0f b6 10             	movzbl (%eax),%edx
  1039f4:	8b 45 fc             	mov    -0x4(%ebp),%eax
  1039f7:	88 10                	mov    %dl,(%eax)
  1039f9:	8b 45 08             	mov    0x8(%ebp),%eax
  1039fc:	c9                   	leave  
  1039fd:	c3                   	ret    

001039fe <__stpcpy>:
  1039fe:	55                   	push   %ebp
  1039ff:	89 e5                	mov    %esp,%ebp
  103a01:	83 ec 10             	sub    $0x10,%esp
  103a04:	8b 55 0c             	mov    0xc(%ebp),%edx
  103a07:	8b 45 08             	mov    0x8(%ebp),%eax
  103a0a:	31 d0                	xor    %edx,%eax
  103a0c:	83 e0 03             	and    $0x3,%eax
  103a0f:	85 c0                	test   %eax,%eax
  103a11:	0f 85 80 00 00 00    	jne    103a97 <__stpcpy+0x99>
  103a17:	eb 25                	jmp    103a3e <__stpcpy+0x40>
  103a19:	8b 45 0c             	mov    0xc(%ebp),%eax
  103a1c:	0f b6 10             	movzbl (%eax),%edx
  103a1f:	8b 45 08             	mov    0x8(%ebp),%eax
  103a22:	88 10                	mov    %dl,(%eax)
  103a24:	8b 45 08             	mov    0x8(%ebp),%eax
  103a27:	0f b6 00             	movzbl (%eax),%eax
  103a2a:	84 c0                	test   %al,%al
  103a2c:	75 08                	jne    103a36 <__stpcpy+0x38>
  103a2e:	8b 45 08             	mov    0x8(%ebp),%eax
  103a31:	e9 83 00 00 00       	jmp    103ab9 <__stpcpy+0xbb>
  103a36:	83 45 0c 01          	addl   $0x1,0xc(%ebp)
  103a3a:	83 45 08 01          	addl   $0x1,0x8(%ebp)
  103a3e:	8b 45 0c             	mov    0xc(%ebp),%eax
  103a41:	83 e0 03             	and    $0x3,%eax
  103a44:	85 c0                	test   %eax,%eax
  103a46:	75 d1                	jne    103a19 <__stpcpy+0x1b>
  103a48:	8b 45 08             	mov    0x8(%ebp),%eax
  103a4b:	89 45 fc             	mov    %eax,-0x4(%ebp)
  103a4e:	8b 45 0c             	mov    0xc(%ebp),%eax
  103a51:	89 45 f8             	mov    %eax,-0x8(%ebp)
  103a54:	eb 16                	jmp    103a6c <__stpcpy+0x6e>
  103a56:	8b 45 fc             	mov    -0x4(%ebp),%eax
  103a59:	8d 50 04             	lea    0x4(%eax),%edx
  103a5c:	89 55 fc             	mov    %edx,-0x4(%ebp)
  103a5f:	8b 55 f8             	mov    -0x8(%ebp),%edx
  103a62:	8d 4a 04             	lea    0x4(%edx),%ecx
  103a65:	89 4d f8             	mov    %ecx,-0x8(%ebp)
  103a68:	8b 12                	mov    (%edx),%edx
  103a6a:	89 10                	mov    %edx,(%eax)
  103a6c:	8b 45 f8             	mov    -0x8(%ebp),%eax
  103a6f:	8b 00                	mov    (%eax),%eax
  103a71:	8d 90 ff fe fe fe    	lea    -0x1010101(%eax),%edx
  103a77:	8b 45 f8             	mov    -0x8(%ebp),%eax
  103a7a:	8b 00                	mov    (%eax),%eax
  103a7c:	f7 d0                	not    %eax
  103a7e:	21 d0                	and    %edx,%eax
  103a80:	25 80 80 80 80       	and    $0x80808080,%eax
  103a85:	85 c0                	test   %eax,%eax
  103a87:	74 cd                	je     103a56 <__stpcpy+0x58>
  103a89:	8b 45 fc             	mov    -0x4(%ebp),%eax
  103a8c:	89 45 08             	mov    %eax,0x8(%ebp)
  103a8f:	8b 45 f8             	mov    -0x8(%ebp),%eax
  103a92:	89 45 0c             	mov    %eax,0xc(%ebp)
  103a95:	eb 0a                	jmp    103aa1 <__stpcpy+0xa3>
  103a97:	eb 08                	jmp    103aa1 <__stpcpy+0xa3>
  103a99:	83 45 0c 01          	addl   $0x1,0xc(%ebp)
  103a9d:	83 45 08 01          	addl   $0x1,0x8(%ebp)
  103aa1:	8b 45 0c             	mov    0xc(%ebp),%eax
  103aa4:	0f b6 10             	movzbl (%eax),%edx
  103aa7:	8b 45 08             	mov    0x8(%ebp),%eax
  103aaa:	88 10                	mov    %dl,(%eax)
  103aac:	8b 45 08             	mov    0x8(%ebp),%eax
  103aaf:	0f b6 00             	movzbl (%eax),%eax
  103ab2:	84 c0                	test   %al,%al
  103ab4:	75 e3                	jne    103a99 <__stpcpy+0x9b>
  103ab6:	8b 45 08             	mov    0x8(%ebp),%eax
  103ab9:	c9                   	leave  
  103aba:	c3                   	ret    

Disassembly of section .rodata:

00104000 <.rodata>:
  104000:	4f                   	dec    %edi
  104001:	53                   	push   %ebx
  104002:	20 5a 69             	and    %bl,0x69(%edx)
  104005:	6e                   	outsb  %ds:(%esi),(%dx)
  104006:	20 76 65             	and    %dh,0x65(%esi)
  104009:	72 73                	jb     10407e <__stpcpy+0x680>
  10400b:	69 6f 6e 20 30 2e 30 	imul   $0x302e3020,0x6e(%edi),%ebp
  104012:	2e 31 20             	xor    %esp,%cs:(%eax)
  104015:	62 6f 6f             	bound  %ebp,0x6f(%edi)
  104018:	74 69                	je     104083 <__stpcpy+0x685>
  10401a:	6e                   	outsb  %ds:(%esi),(%dx)
  10401b:	67 2e 2e 2e 20 0a    	cs cs and %cl,%cs:(%bp,%si)
  104021:	00 00                	add    %al,(%eax)
  104023:	00 43 6f             	add    %al,0x6f(%ebx)
  104026:	70 79                	jo     1040a1 <__stpcpy+0x6a3>
  104028:	72 69                	jb     104093 <__stpcpy+0x695>
  10402a:	67 68 74 20 28 63    	addr16 push $0x63282074
  104030:	29 20                	sub    %esp,(%eax)
  104032:	4d                   	dec    %ebp
  104033:	61                   	popa   
  104034:	6b 65 72 69          	imul   $0x69,0x72(%ebp),%esp
  104038:	6d                   	insl   (%dx),%es:(%edi)
  104039:	61                   	popa   
  10403a:	67                   	addr16
  10403b:	65                   	gs
  10403c:	73 20                	jae    10405e <__stpcpy+0x660>
  10403e:	32 30                	xor    (%eax),%dh
  104040:	31 34 2d 32 30 31 35 	xor    %esi,0x35313032(,%ebp,1)
  104047:	2e 20 4d 49          	and    %cl,%cs:0x49(%ebp)
  10404b:	54                   	push   %esp
  10404c:	20 0a                	and    %cl,(%edx)
  10404e:	00 00                	add    %al,(%eax)
  104050:	56                   	push   %esi
  104051:	69 73 69 74 20 77 77 	imul   $0x77772074,0x69(%ebx),%esi
  104058:	77 2e                	ja     104088 <__stpcpy+0x68a>
  10405a:	6f                   	outsl  %ds:(%esi),(%dx)
  10405b:	73 7a                	jae    1040d7 <__stpcpy+0x6d9>
  10405d:	69 6e 2e 63 66 20 66 	imul   $0x66206663,0x2e(%esi),%ebp
  104064:	6f                   	outsl  %ds:(%esi),(%dx)
  104065:	72 20                	jb     104087 <__stpcpy+0x689>
  104067:	6d                   	insl   (%dx),%es:(%edi)
  104068:	6f                   	outsl  %ds:(%esi),(%dx)
  104069:	72 65                	jb     1040d0 <__stpcpy+0x6d2>
  10406b:	20 69 6e             	and    %ch,0x6e(%ecx)
  10406e:	66 6f                	outsw  %ds:(%esi),(%dx)
  104070:	72 6d                	jb     1040df <__stpcpy+0x6e1>
  104072:	61                   	popa   
  104073:	74 69                	je     1040de <__stpcpy+0x6e0>
  104075:	6f                   	outsl  %ds:(%esi),(%dx)
  104076:	6e                   	outsb  %ds:(%esi),(%dx)
  104077:	2e 20 53 6f          	and    %dl,%cs:0x6f(%ebx)
  10407b:	75 72                	jne    1040ef <__stpcpy+0x6f1>
  10407d:	63 65 73             	arpl   %sp,0x73(%ebp)
  104080:	20 61 76             	and    %ah,0x76(%ecx)
  104083:	61                   	popa   
  104084:	69 6c 61 62 6c 65 20 	imul   $0x6f20656c,0x62(%ecx,%eiz,2),%ebp
  10408b:	6f 
  10408c:	6e                   	outsb  %ds:(%esi),(%dx)
  10408d:	20 47 69             	and    %al,0x69(%edi)
  104090:	74 48                	je     1040da <__stpcpy+0x6dc>
  104092:	75 62                	jne    1040f6 <__stpcpy+0x6f8>
  104094:	2e 0a 00             	or     %cs:(%eax),%al
  104097:	00 4b 65             	add    %cl,0x65(%ebx)
  10409a:	72 6e                	jb     10410a <__stpcpy+0x70c>
  10409c:	65                   	gs
  10409d:	6c                   	insb   (%dx),%es:(%edi)
  10409e:	3a 20                	cmp    (%eax),%ah
  1040a0:	53                   	push   %ebx
  1040a1:	74 61                	je     104104 <__stpcpy+0x706>
  1040a3:	72 74                	jb     104119 <__stpcpy+0x71b>
  1040a5:	3a 20                	cmp    (%eax),%ah
  1040a7:	30 78 25             	xor    %bh,0x25(%eax)
  1040aa:	78 2c                	js     1040d8 <__stpcpy+0x6da>
  1040ac:	20 45 6e             	and    %al,0x6e(%ebp)
  1040af:	64 3a 20             	cmp    %fs:(%eax),%ah
  1040b2:	30 78 25             	xor    %bh,0x25(%eax)
  1040b5:	78 2c                	js     1040e3 <__stpcpy+0x6e5>
  1040b7:	20 53 69             	and    %dl,0x69(%ebx)
  1040ba:	7a 65                	jp     104121 <__stpcpy+0x723>
  1040bc:	3a 20                	cmp    (%eax),%ah
  1040be:	25 64 20 4b 42       	and    $0x424b2064,%eax
  1040c3:	2e 0a 00             	or     %cs:(%eax),%al
  1040c6:	45                   	inc    %ebp
  1040c7:	6e                   	outsb  %ds:(%esi),(%dx)
  1040c8:	61                   	popa   
  1040c9:	62 6c 69 6e          	bound  %ebp,0x6e(%ecx,%ebp,2)
  1040cd:	67 20 69 6e          	and    %ch,0x6e(%bx,%di)
  1040d1:	74 65                	je     104138 <__stpcpy+0x73a>
  1040d3:	72 72                	jb     104147 <__stpcpy+0x749>
  1040d5:	75 70                	jne    104147 <__stpcpy+0x749>
  1040d7:	74 73                	je     10414c <__stpcpy+0x74e>
  1040d9:	20 00                	and    %al,(%eax)
  1040db:	4f                   	dec    %edi
  1040dc:	4b                   	dec    %ebx
  1040dd:	2e 0a 00             	or     %cs:(%eax),%al
  1040e0:	53                   	push   %ebx
  1040e1:	79 73                	jns    104156 <__stpcpy+0x758>
  1040e3:	74 65                	je     10414a <__stpcpy+0x74c>
  1040e5:	6d                   	insl   (%dx),%es:(%edi)
  1040e6:	20 69 6e             	and    %ch,0x6e(%ecx)
  1040e9:	66 6f                	outsw  %ds:(%esi),(%dx)
  1040eb:	20 53 54             	and    %dl,0x54(%ebx)
  1040ee:	41                   	inc    %ecx
  1040ef:	52                   	push   %edx
  1040f0:	54                   	push   %esp
  1040f1:	0a 00                	or     (%eax),%al
  1040f3:	09 4d 61             	or     %ecx,0x61(%ebp)
  1040f6:	67 69 63 20 6e 75 6d 	imul   $0x626d756e,0x20(%bp,%di),%esp
  1040fd:	62 
  1040fe:	65                   	gs
  1040ff:	72 20                	jb     104121 <__stpcpy+0x723>
  104101:	69 73 3a 20 30 78 25 	imul   $0x25783020,0x3a(%ebx),%esi
  104108:	78 2e                	js     104138 <__stpcpy+0x73a>
  10410a:	00 20                	add    %ah,(%eax)
  10410c:	4f                   	dec    %edi
  10410d:	4b                   	dec    %ebx
  10410e:	0a 00                	or     (%eax),%al
  104110:	20 46 41             	and    %al,0x41(%esi)
  104113:	49                   	dec    %ecx
  104114:	4c                   	dec    %esp
  104115:	0a 00                	or     (%eax),%al
  104117:	00 09                	add    %cl,(%ecx)
  104119:	4d                   	dec    %ebp
  10411a:	75 6c                	jne    104188 <__stpcpy+0x78a>
  10411c:	74 69                	je     104187 <__stpcpy+0x789>
  10411e:	62 6f 6f             	bound  %ebp,0x6f(%edi)
  104121:	74 20                	je     104143 <__stpcpy+0x745>
  104123:	69 6e 66 6f 20 70 6f 	imul   $0x6f70206f,0x66(%esi),%ebp
  10412a:	69 6e 74 73 20 74 6f 	imul   $0x6f742073,0x74(%esi),%ebp
  104131:	3a 20                	cmp    (%eax),%ah
  104133:	30 78 25             	xor    %bh,0x25(%eax)
  104136:	78 0a                	js     104142 <__stpcpy+0x744>
  104138:	00 00                	add    %al,(%eax)
  10413a:	00 00                	add    %al,(%eax)
  10413c:	09 55 73             	or     %edx,0x73(%ebp)
  10413f:	69 6e 67 20 70 61 73 	imul   $0x73617020,0x67(%esi),%ebp
  104146:	73 65                	jae    1041ad <__stpcpy+0x7af>
  104148:	64 20 6d 65          	and    %ch,%fs:0x65(%ebp)
  10414c:	6d                   	insl   (%dx),%es:(%edi)
  10414d:	6f                   	outsl  %ds:(%esi),(%dx)
  10414e:	72 79                	jb     1041c9 <__stpcpy+0x7cb>
  104150:	20 6d 61             	and    %ch,0x61(%ebp)
  104153:	70 2c                	jo     104181 <__stpcpy+0x783>
  104155:	20 77 68             	and    %dh,0x68(%edi)
  104158:	69 63 68 20 66 6f 6c 	imul   $0x6c6f6620,0x68(%ebx),%esp
  10415f:	6c                   	insb   (%dx),%es:(%edi)
  104160:	6f                   	outsl  %ds:(%esi),(%dx)
  104161:	77 73                	ja     1041d6 <__stpcpy+0x7d8>
  104163:	2e 0a 00             	or     %cs:(%eax),%al
  104166:	00 00                	add    %al,(%eax)
  104168:	09 09                	or     %ecx,(%ecx)
  10416a:	52                   	push   %edx
  10416b:	65 67 69 6f 6e 2c 20 	imul   $0x6461202c,%gs:0x6e(%bx),%ebp
  104172:	61 64 
  104174:	64                   	fs
  104175:	72 65                	jb     1041dc <__stpcpy+0x7de>
  104177:	73 73                	jae    1041ec <__stpcpy+0x7ee>
  104179:	20 30                	and    %dh,(%eax)
  10417b:	78 25                	js     1041a2 <__stpcpy+0x7a4>
  10417d:	78 20                	js     10419f <__stpcpy+0x7a1>
  10417f:	73 69                	jae    1041ea <__stpcpy+0x7ec>
  104181:	7a 65                	jp     1041e8 <__stpcpy+0x7ea>
  104183:	20 25 64 20 4b 42    	and    %ah,0x424b2064
  104189:	20 74 79 70          	and    %dh,0x70(%ecx,%edi,2)
  10418d:	65 20 25 64 2e 0a 00 	and    %ah,%gs:0xa2e64
  104194:	09 54 6f 74          	or     %edx,0x74(%edi,%ebp,2)
  104198:	61                   	popa   
  104199:	6c                   	insb   (%dx),%es:(%edi)
  10419a:	20 6d 65             	and    %ch,0x65(%ebp)
  10419d:	6d                   	insl   (%dx),%es:(%edi)
  10419e:	6f                   	outsl  %ds:(%esi),(%dx)
  10419f:	72 79                	jb     10421a <__stpcpy+0x81c>
  1041a1:	3a 20                	cmp    (%eax),%ah
  1041a3:	25 64 20 4b 42       	and    $0x424b2064,%eax
  1041a8:	2e 0a 00             	or     %cs:(%eax),%al
  1041ab:	09 4f 66             	or     %ecx,0x66(%edi)
  1041ae:	20 77 68             	and    %dh,0x68(%edi)
  1041b1:	69 63 68 20 25 64 20 	imul   $0x20642520,0x68(%ebx),%esp
  1041b8:	4b                   	dec    %ebx
  1041b9:	42                   	inc    %edx
  1041ba:	20 69 73             	and    %ch,0x73(%ecx)
  1041bd:	20 75 73             	and    %dh,0x73(%ebp)
  1041c0:	61                   	popa   
  1041c1:	62 6c 65 2e          	bound  %ebp,0x2e(%ebp,%eiz,2)
  1041c5:	0a 00                	or     (%eax),%al
  1041c7:	00 09                	add    %cl,(%ecx)
  1041c9:	4e                   	dec    %esi
  1041ca:	6f                   	outsl  %ds:(%esi),(%dx)
  1041cb:	20 6d 65             	and    %ch,0x65(%ebp)
  1041ce:	6d                   	insl   (%dx),%es:(%edi)
  1041cf:	6f                   	outsl  %ds:(%esi),(%dx)
  1041d0:	72 79                	jb     10424b <__stpcpy+0x84d>
  1041d2:	20 6d 61             	and    %ch,0x61(%ebp)
  1041d5:	70 20                	jo     1041f7 <__stpcpy+0x7f9>
  1041d7:	70 61                	jo     10423a <__stpcpy+0x83c>
  1041d9:	73 73                	jae    10424e <__stpcpy+0x850>
  1041db:	65                   	gs
  1041dc:	64                   	fs
  1041dd:	2c 20                	sub    $0x20,%al
  1041df:	75 73                	jne    104254 <__stpcpy+0x856>
  1041e1:	69 6e 67 20 6d 65 6d 	imul   $0x6d656d20,0x67(%esi),%ebp
  1041e8:	5f                   	pop    %edi
  1041e9:	75 70                	jne    10425b <__stpcpy+0x85d>
  1041eb:	70 65                	jo     104252 <__stpcpy+0x854>
  1041ed:	72 20                	jb     10420f <__stpcpy+0x811>
  1041ef:	26 20 6d 65          	and    %ch,%es:0x65(%ebp)
  1041f3:	6d                   	insl   (%dx),%es:(%edi)
  1041f4:	5f                   	pop    %edi
  1041f5:	6c                   	insb   (%dx),%es:(%edi)
  1041f6:	6f                   	outsl  %ds:(%esi),(%dx)
  1041f7:	77 65                	ja     10425e <__stpcpy+0x860>
  1041f9:	72 2e                	jb     104229 <__stpcpy+0x82b>
  1041fb:	0a 00                	or     (%eax),%al
  1041fd:	53                   	push   %ebx
  1041fe:	79 73                	jns    104273 <__stpcpy+0x875>
  104200:	74 65                	je     104267 <__stpcpy+0x869>
  104202:	6d                   	insl   (%dx),%es:(%edi)
  104203:	20 69 6e             	and    %ch,0x6e(%ecx)
  104206:	66 6f                	outsw  %ds:(%esi),(%dx)
  104208:	20 45 4e             	and    %al,0x4e(%ebp)
  10420b:	44                   	inc    %esp
  10420c:	0a 00                	or     (%eax),%al
  10420e:	00 00                	add    %al,(%eax)
  104210:	53                   	push   %ebx
  104211:	74 61                	je     104274 <__stpcpy+0x876>
  104213:	72 74                	jb     104289 <__stpcpy+0x88b>
  104215:	20 30                	and    %dh,(%eax)
  104217:	78 25                	js     10423e <__stpcpy+0x840>
  104219:	78 2c                	js     104247 <__stpcpy+0x849>
  10421b:	20 65 6e             	and    %ah,0x6e(%ebp)
  10421e:	64 3a 20             	cmp    %fs:(%eax),%ah
  104221:	30 78 25             	xor    %bh,0x25(%eax)
  104224:	78 2c                	js     104252 <__stpcpy+0x854>
  104226:	20 73 69             	and    %dh,0x69(%ebx)
  104229:	7a 65                	jp     104290 <__stpcpy+0x892>
  10422b:	20 25 64 0a 00 2e    	and    %ah,0x2e000a64
  104231:	73 74                	jae    1042a7 <__stpcpy+0x8a9>
  104233:	72 74                	jb     1042a9 <__stpcpy+0x8ab>
  104235:	61                   	popa   
  104236:	62 00                	bound  %eax,(%eax)
  104238:	2e 73 79             	jae,pn 1042b4 <__stpcpy+0x8b6>
  10423b:	6d                   	insl   (%dx),%es:(%edi)
  10423c:	74 61                	je     10429f <__stpcpy+0x8a1>
  10423e:	62 00                	bound  %eax,(%eax)
  104240:	53                   	push   %ebx
  104241:	74 61                	je     1042a4 <__stpcpy+0x8a6>
  104243:	63 6b 74             	arpl   %bp,0x74(%ebx)
  104246:	72 61                	jb     1042a9 <__stpcpy+0x8ab>
  104248:	63 65 20             	arpl   %sp,0x20(%ebp)
  10424b:	66 6f                	outsw  %ds:(%esi),(%dx)
  10424d:	6c                   	insb   (%dx),%es:(%edi)
  10424e:	6c                   	insb   (%dx),%es:(%edi)
  10424f:	6f                   	outsl  %ds:(%esi),(%dx)
  104250:	77 73                	ja     1042c5 <__stpcpy+0x8c7>
  104252:	3a 0a                	cmp    (%edx),%cl
  104254:	00 5b 30             	add    %bl,0x30(%ebx)
  104257:	78 25                	js     10427e <__stpcpy+0x880>
  104259:	78 5d                	js     1042b8 <__stpcpy+0x8ba>
  10425b:	20 25 73 20 0a 00    	and    %ah,0xa2073
  104261:	44                   	inc    %esp
  104262:	69 76 69 64 65 20 65 	imul   $0x65206564,0x69(%esi),%esi
  104269:	72 72                	jb     1042dd <__stpcpy+0x8df>
  10426b:	6f                   	outsl  %ds:(%esi),(%dx)
  10426c:	72 00                	jb     10426e <__stpcpy+0x870>
  10426e:	44                   	inc    %esp
  10426f:	65 62 75 67          	bound  %esi,%gs:0x67(%ebp)
  104273:	00 42 72             	add    %al,0x72(%edx)
  104276:	65                   	gs
  104277:	61                   	popa   
  104278:	6b 70 6f 69          	imul   $0x69,0x6f(%eax),%esi
  10427c:	6e                   	outsb  %ds:(%esi),(%dx)
  10427d:	74 00                	je     10427f <__stpcpy+0x881>
  10427f:	4f                   	dec    %edi
  104280:	76 65                	jbe    1042e7 <__stpcpy+0x8e9>
  104282:	72 66                	jb     1042ea <__stpcpy+0x8ec>
  104284:	6c                   	insb   (%dx),%es:(%edi)
  104285:	6f                   	outsl  %ds:(%esi),(%dx)
  104286:	77 00                	ja     104288 <__stpcpy+0x88a>
  104288:	42                   	inc    %edx
  104289:	6f                   	outsl  %ds:(%esi),(%dx)
  10428a:	75 6e                	jne    1042fa <__stpcpy+0x8fc>
  10428c:	64 20 72 61          	and    %dh,%fs:0x61(%edx)
  104290:	6e                   	outsb  %ds:(%esi),(%dx)
  104291:	67 65 20 65 78       	and    %ah,%gs:0x78(%di)
  104296:	65 65 64 65 64 00 49 	gs gs fs gs add %cl,%fs:%gs:0x6e(%ecx)
  10429d:	6e 
  10429e:	76 61                	jbe    104301 <__stpcpy+0x903>
  1042a0:	6c                   	insb   (%dx),%es:(%edi)
  1042a1:	69 64 20 6f 70 63 6f 	imul   $0x646f6370,0x6f(%eax,%eiz,1),%esp
  1042a8:	64 
  1042a9:	65 00 4e 6f          	add    %cl,%gs:0x6f(%esi)
  1042ad:	20 6d 61             	and    %ch,0x61(%ebp)
  1042b0:	74 68                	je     10431a <__stpcpy+0x91c>
  1042b2:	20 63 6f             	and    %ah,0x6f(%ebx)
  1042b5:	70 72                	jo     104329 <__stpcpy+0x92b>
  1042b7:	6f                   	outsl  %ds:(%esi),(%dx)
  1042b8:	63 65 73             	arpl   %sp,0x73(%ebp)
  1042bb:	73 6f                	jae    10432c <__stpcpy+0x92e>
  1042bd:	72 00                	jb     1042bf <__stpcpy+0x8c1>
  1042bf:	44                   	inc    %esp
  1042c0:	6f                   	outsl  %ds:(%esi),(%dx)
  1042c1:	75 62                	jne    104325 <__stpcpy+0x927>
  1042c3:	6c                   	insb   (%dx),%es:(%edi)
  1042c4:	65 20 66 61          	and    %ah,%gs:0x61(%esi)
  1042c8:	75 6c                	jne    104336 <__stpcpy+0x938>
  1042ca:	74 00                	je     1042cc <__stpcpy+0x8ce>
  1042cc:	43                   	inc    %ebx
  1042cd:	6f                   	outsl  %ds:(%esi),(%dx)
  1042ce:	70 72                	jo     104342 <__stpcpy+0x944>
  1042d0:	6f                   	outsl  %ds:(%esi),(%dx)
  1042d1:	63 65 73             	arpl   %sp,0x73(%ebp)
  1042d4:	73 6f                	jae    104345 <__stpcpy+0x947>
  1042d6:	72 20                	jb     1042f8 <__stpcpy+0x8fa>
  1042d8:	73 65                	jae    10433f <__stpcpy+0x941>
  1042da:	67 6d                	insl   (%dx),%es:(%di)
  1042dc:	65 6e                	outsb  %gs:(%esi),(%dx)
  1042de:	74 20                	je     104300 <__stpcpy+0x902>
  1042e0:	6f                   	outsl  %ds:(%esi),(%dx)
  1042e1:	76 65                	jbe    104348 <__stpcpy+0x94a>
  1042e3:	72 72                	jb     104357 <__stpcpy+0x959>
  1042e5:	75 6e                	jne    104355 <__stpcpy+0x957>
  1042e7:	00 49 6e             	add    %cl,0x6e(%ecx)
  1042ea:	76 61                	jbe    10434d <__stpcpy+0x94f>
  1042ec:	6c                   	insb   (%dx),%es:(%edi)
  1042ed:	69 64 20 54 53 53 00 	imul   $0x53005353,0x54(%eax,%eiz,1),%esp
  1042f4:	53 
  1042f5:	65                   	gs
  1042f6:	67 6d                	insl   (%dx),%es:(%di)
  1042f8:	65 6e                	outsb  %gs:(%esi),(%dx)
  1042fa:	74 20                	je     10431c <__stpcpy+0x91e>
  1042fc:	6e                   	outsb  %ds:(%esi),(%dx)
  1042fd:	6f                   	outsl  %ds:(%esi),(%dx)
  1042fe:	74 20                	je     104320 <__stpcpy+0x922>
  104300:	70 72                	jo     104374 <__stpcpy+0x976>
  104302:	65                   	gs
  104303:	73 65                	jae    10436a <__stpcpy+0x96c>
  104305:	6e                   	outsb  %ds:(%esi),(%dx)
  104306:	74 00                	je     104308 <__stpcpy+0x90a>
  104308:	53                   	push   %ebx
  104309:	74 61                	je     10436c <__stpcpy+0x96e>
  10430b:	63 6b 2d             	arpl   %bp,0x2d(%ebx)
  10430e:	73 65                	jae    104375 <__stpcpy+0x977>
  104310:	67 6d                	insl   (%dx),%es:(%di)
  104312:	65 6e                	outsb  %gs:(%esi),(%dx)
  104314:	74 20                	je     104336 <__stpcpy+0x938>
  104316:	66 61                	popaw  
  104318:	75 6c                	jne    104386 <__stpcpy+0x988>
  10431a:	74 00                	je     10431c <__stpcpy+0x91e>
  10431c:	47                   	inc    %edi
  10431d:	50                   	push   %eax
  10431e:	00 50 61             	add    %dl,0x61(%eax)
  104321:	67 65 20 66 61       	and    %ah,%gs:0x61(%bp)
  104326:	75 6c                	jne    104394 <__stpcpy+0x996>
  104328:	74 00                	je     10432a <__stpcpy+0x92c>
  10432a:	46                   	inc    %esi
  10432b:	6c                   	insb   (%dx),%es:(%edi)
  10432c:	6f                   	outsl  %ds:(%esi),(%dx)
  10432d:	61                   	popa   
  10432e:	74 69                	je     104399 <__stpcpy+0x99b>
  104330:	6e                   	outsb  %ds:(%esi),(%dx)
  104331:	67 20 70 6f          	and    %dh,0x6f(%bx,%si)
  104335:	69 6e 74 20 65 72 72 	imul   $0x72726520,0x74(%esi),%ebp
  10433c:	6f                   	outsl  %ds:(%esi),(%dx)
  10433d:	72 00                	jb     10433f <__stpcpy+0x941>
  10433f:	41                   	inc    %ecx
  104340:	6c                   	insb   (%dx),%es:(%edi)
  104341:	69 67 6e 6d 65 6e 74 	imul   $0x746e656d,0x6e(%edi),%esp
  104348:	20 63 68             	and    %ah,0x68(%ebx)
  10434b:	65 63 6b 00          	arpl   %bp,%gs:0x0(%ebx)
  10434f:	4d                   	dec    %ebp
  104350:	61                   	popa   
  104351:	63 68 69             	arpl   %bp,0x69(%eax)
  104354:	6e                   	outsb  %ds:(%esi),(%dx)
  104355:	65 20 63 68          	and    %ah,%gs:0x68(%ebx)
  104359:	65 63 6b 00          	arpl   %bp,%gs:0x0(%ebx)
  10435d:	53                   	push   %ebx
  10435e:	74 72                	je     1043d2 <__stpcpy+0x9d4>
  104360:	65                   	gs
  104361:	61                   	popa   
  104362:	6d                   	insl   (%dx),%es:(%edi)
  104363:	69 6e 67 20 53 49 4d 	imul   $0x4d495320,0x67(%esi),%ebp
  10436a:	44                   	inc    %esp
  10436b:	20 45 78             	and    %al,0x78(%ebp)
  10436e:	74 65                	je     1043d5 <__stpcpy+0x9d7>
  104370:	6e                   	outsb  %ds:(%esi),(%dx)
  104371:	73 69                	jae    1043dc <__stpcpy+0x9de>
  104373:	6f                   	outsl  %ds:(%esi),(%dx)
  104374:	6e                   	outsb  %ds:(%esi),(%dx)
  104375:	73 00                	jae    104377 <__stpcpy+0x979>
  104377:	55                   	push   %ebp
  104378:	6e                   	outsb  %ds:(%esi),(%dx)
  104379:	68 61 6e 64 6c       	push   $0x6c646e61
  10437e:	65 64 20 49 52       	gs and %cl,%fs:%gs:0x52(%ecx)
  104383:	51                   	push   %ecx
  104384:	21 00                	and    %eax,(%eax)
  104386:	50                   	push   %eax
  104387:	61                   	popa   
  104388:	67 65 20 66 61       	and    %ah,%gs:0x61(%bp)
  10438d:	75 6c                	jne    1043fb <__stpcpy+0x9fd>
  10438f:	74 21                	je     1043b2 <__stpcpy+0x9b4>
  104391:	00 49 6e             	add    %cl,0x6e(%ecx)
  104394:	69 74 69 61 6c 69 7a 	imul   $0x697a696c,0x61(%ecx,%ebp,2),%esi
  10439b:	69 
  10439c:	6e                   	outsb  %ds:(%esi),(%dx)
  10439d:	67 20 70 61          	and    %dh,0x61(%bx,%si)
  1043a1:	67 69 6e 67 2e 2e 2e 	imul   $0x202e2e2e,0x67(%bp),%ebp
  1043a8:	20 
  1043a9:	00 4f 4b             	add    %cl,0x4b(%edi)
  1043ac:	0a 00                	or     (%eax),%al
  1043ae:	00 00                	add    %al,(%eax)
  1043b0:	09 49 6e             	or     %ecx,0x6e(%ecx)
  1043b3:	69 74 69 61 6c 69 7a 	imul   $0x697a696c,0x61(%ecx,%ebp,2),%esi
  1043ba:	69 
  1043bb:	6e                   	outsb  %ds:(%esi),(%dx)
  1043bc:	67 20 50 4d          	and    %dl,0x4d(%bx,%si)
  1043c0:	4d                   	dec    %ebp
  1043c1:	20 00                	and    %al,(%eax)
  1043c3:	4f                   	dec    %edi
  1043c4:	4b                   	dec    %ebx
  1043c5:	0a 00                	or     (%eax),%al
  1043c7:	00 09                	add    %cl,(%ecx)
  1043c9:	46                   	inc    %esi
  1043ca:	69 72 73 74 20 66 72 	imul   $0x72662074,0x73(%edx),%esi
  1043d1:	65 65 20 70 61       	gs and %dh,%gs:0x61(%eax)
  1043d6:	67 65 20 69 73       	and    %ch,%gs:0x73(%bx,%di)
  1043db:	20 61 74             	and    %ah,0x74(%ecx)
  1043de:	3a 20                	cmp    (%eax),%ah
  1043e0:	30 78 25             	xor    %bh,0x25(%eax)
  1043e3:	78 2e                	js     104413 <__stpcpy+0xa15>
  1043e5:	20 4e 65             	and    %cl,0x65(%esi)
  1043e8:	78 74                	js     10445e <__stpcpy+0xa60>
  1043ea:	3a 20                	cmp    (%eax),%ah
  1043ec:	30 78 25             	xor    %bh,0x25(%eax)
  1043ef:	78 2e                	js     10441f <__stpcpy+0xa21>
  1043f1:	0a 00                	or     (%eax),%al
  1043f3:	00 52 53             	add    %dl,0x53(%edx)
  1043f6:	44                   	inc    %esp
  1043f7:	20 50 54             	and    %dl,0x54(%eax)
  1043fa:	52                   	push   %edx
  1043fb:	20 00                	and    %al,(%eax)
  1043fd:	27                   	daa    
  1043fe:	52                   	push   %edx
  1043ff:	53                   	push   %ebx
  104400:	44                   	inc    %esp
  104401:	20 50 54             	and    %dl,0x54(%eax)
  104404:	52                   	push   %edx
  104405:	20 27                	and    %ah,(%edi)
  104407:	20 6c 6f 63          	and    %ch,0x63(%edi,%ebp,2)
  10440b:	61                   	popa   
  10440c:	74 65                	je     104473 <__stpcpy+0xa75>
  10440e:	64 20 61 74          	and    %ah,%fs:0x74(%ecx)
  104412:	3a 20                	cmp    (%eax),%ah
  104414:	30 78 25             	xor    %bh,0x25(%eax)
  104417:	78 0a                	js     104423 <__stpcpy+0xa25>
  104419:	00 00                	add    %al,(%eax)
  10441b:	00 49 6e             	add    %cl,0x6e(%ecx)
  10441e:	69 74 69 61 6c 69 7a 	imul   $0x697a696c,0x61(%ecx,%ebp,2),%esi
  104425:	69 
  104426:	6e                   	outsb  %ds:(%esi),(%dx)
  104427:	67 20 41 43          	and    %al,0x43(%bx,%di)
  10442b:	50                   	push   %eax
  10442c:	49                   	dec    %ecx
  10442d:	20 73 65             	and    %dh,0x65(%ebx)
  104430:	72 76                	jb     1044a8 <__stpcpy+0xaaa>
  104432:	69 63 65 73 2e 2e 2e 	imul   $0x2e2e2e73,0x65(%ebx),%esp
  104439:	0a 00                	or     (%eax),%al
  10443b:	00 27                	add    %ah,(%edi)
  10443d:	52                   	push   %edx
  10443e:	53                   	push   %ebx
  10443f:	44                   	inc    %esp
  104440:	20 50 54             	and    %dl,0x54(%eax)
  104443:	52                   	push   %edx
  104444:	20 27                	and    %ah,(%edi)
  104446:	20 6e 6f             	and    %ch,0x6f(%esi)
  104449:	74 20                	je     10446b <__stpcpy+0xa6d>
  10444b:	66 6f                	outsw  %ds:(%esi),(%dx)
  10444d:	75 6e                	jne    1044bd <__stpcpy+0xabf>
  10444f:	64 20 69 6e          	and    %ch,%fs:0x6e(%ecx)
  104453:	20 74 68 65          	and    %dh,0x65(%eax,%ebp,2)
  104457:	20 6d 65             	and    %ch,0x65(%ebp)
  10445a:	6d                   	insl   (%dx),%es:(%edi)
  10445b:	6f                   	outsl  %ds:(%esi),(%dx)
  10445c:	72 79                	jb     1044d7 <__stpcpy+0xad9>
  10445e:	20 72 61             	and    %dh,0x61(%edx)
  104461:	6e                   	outsb  %ds:(%esi),(%dx)
  104462:	67 65 2e 0a 00       	gs or  %cs:%gs:(%bx,%si),%al
  104467:	55                   	push   %ebp
  104468:	73 69                	jae    1044d3 <__stpcpy+0xad5>
  10446a:	6e                   	outsb  %ds:(%esi),(%dx)
  10446b:	67 20 52 53          	and    %dl,0x53(%bp,%si)
  10446f:	44                   	inc    %esp
  104470:	50                   	push   %eax
  104471:	20 54 61 62          	and    %dl,0x62(%ecx,%eiz,2)
  104475:	6c                   	insb   (%dx),%es:(%edi)
  104476:	65 20 70 72          	and    %dh,%gs:0x72(%eax)
  10447a:	65                   	gs
  10447b:	2d 32 2e 30 2e       	sub    $0x2e302e32,%eax
  104480:	0a 00                	or     (%eax),%al
  104482:	41                   	inc    %ecx
  104483:	43                   	inc    %ebx
  104484:	50                   	push   %eax
  104485:	49                   	dec    %ecx
  104486:	20 73 69             	and    %dh,0x69(%ebx)
  104489:	67 6e                	outsb  %ds:(%si),(%dx)
  10448b:	61                   	popa   
  10448c:	74 75                	je     104503 <__stpcpy+0xb05>
  10448e:	72 65                	jb     1044f5 <__stpcpy+0xaf7>
  104490:	3a 20                	cmp    (%eax),%ah
  104492:	25 73 4f 45 4d       	and    $0x4d454f73,%eax
  104497:	49                   	dec    %ecx
  104498:	44                   	inc    %esp
  104499:	3a 20                	cmp    (%eax),%ah
  10449b:	25 73 0a 00 56       	and    $0x56000a73,%eax
  1044a0:	65                   	gs
  1044a1:	72 69                	jb     10450c <__stpcpy+0xb0e>
  1044a3:	66                   	data16
  1044a4:	79 69                	jns    10450f <__stpcpy+0xb11>
  1044a6:	6e                   	outsb  %ds:(%esi),(%dx)
  1044a7:	67 20 63 68          	and    %ah,0x68(%bp,%di)
  1044ab:	65 63 6b 73          	arpl   %bp,%gs:0x73(%ebx)
  1044af:	75 6d                	jne    10451e <__stpcpy+0xb20>
  1044b1:	3a 20                	cmp    (%eax),%ah
  1044b3:	00 4f 4b             	add    %cl,0x4b(%edi)
  1044b6:	0a 00                	or     (%eax),%al
  1044b8:	52                   	push   %edx
  1044b9:	53                   	push   %ebx
  1044ba:	44                   	inc    %esp
  1044bb:	54                   	push   %esp
  1044bc:	20 74 61 62          	and    %dh,0x62(%ecx,%eiz,2)
  1044c0:	6c                   	insb   (%dx),%es:(%edi)
  1044c1:	65 20 6c 6f 63       	and    %ch,%gs:0x63(%edi,%ebp,2)
  1044c6:	61                   	popa   
  1044c7:	74 69                	je     104532 <__stpcpy+0xb34>
  1044c9:	6f                   	outsl  %ds:(%esi),(%dx)
  1044ca:	6e                   	outsb  %ds:(%esi),(%dx)
  1044cb:	3a 20                	cmp    (%eax),%ah
  1044cd:	30 78 25             	xor    %bh,0x25(%eax)
  1044d0:	78 0a                	js     1044dc <__stpcpy+0xade>
  1044d2:	00 00                	add    %al,(%eax)
  1044d4:	52                   	push   %edx
  1044d5:	53                   	push   %ebx
  1044d6:	44                   	inc    %esp
  1044d7:	54                   	push   %esp
  1044d8:	20 41 43             	and    %al,0x43(%ecx)
  1044db:	50                   	push   %eax
  1044dc:	49                   	dec    %ecx
  1044dd:	53                   	push   %ebx
  1044de:	44                   	inc    %esp
  1044df:	54                   	push   %esp
  1044e0:	48                   	dec    %eax
  1044e1:	65                   	gs
  1044e2:	61                   	popa   
  1044e3:	64                   	fs
  1044e4:	65                   	gs
  1044e5:	72 20                	jb     104507 <__stpcpy+0xb09>
  1044e7:	53                   	push   %ebx
  1044e8:	69 67 6e 61 74 75 72 	imul   $0x72757461,0x6e(%edi),%esp
  1044ef:	65 3a 20             	cmp    %gs:(%eax),%ah
  1044f2:	25 73 0a 00 00       	and    $0xa73,%eax
  1044f7:	00 56 65             	add    %dl,0x65(%esi)
  1044fa:	72 69                	jb     104565 <__stpcpy+0xb67>
  1044fc:	66                   	data16
  1044fd:	79 69                	jns    104568 <__stpcpy+0xb6a>
  1044ff:	6e                   	outsb  %ds:(%esi),(%dx)
  104500:	67 20 79 65          	and    %bh,0x65(%bx,%di)
  104504:	74 20                	je     104526 <__stpcpy+0xb28>
  104506:	61                   	popa   
  104507:	6e                   	outsb  %ds:(%esi),(%dx)
  104508:	6f                   	outsl  %ds:(%esi),(%dx)
  104509:	74 68                	je     104573 <__stpcpy+0xb75>
  10450b:	65                   	gs
  10450c:	72 20                	jb     10452e <__stpcpy+0xb30>
  10450e:	63 68 65             	arpl   %bp,0x65(%eax)
  104511:	63 6b 73             	arpl   %bp,0x73(%ebx)
  104514:	75 6d                	jne    104583 <__stpcpy+0xb85>
  104516:	2e 20 00             	and    %al,%cs:(%eax)
  104519:	41                   	inc    %ecx
  10451a:	43                   	inc    %ebx
  10451b:	50                   	push   %eax
  10451c:	49                   	dec    %ecx
  10451d:	20 52 65             	and    %dl,0x65(%edx)
  104520:	76 69                	jbe    10458b <__stpcpy+0xb8d>
  104522:	73 69                	jae    10458d <__stpcpy+0xb8f>
  104524:	6f                   	outsl  %ds:(%esi),(%dx)
  104525:	6e                   	outsb  %ds:(%esi),(%dx)
  104526:	3a 20                	cmp    (%eax),%ah
  104528:	25 64 2e 0a 00       	and    $0xa2e64,%eax
  10452d:	41                   	inc    %ecx
  10452e:	50                   	push   %eax
  10452f:	49                   	dec    %ecx
  104530:	43                   	inc    %ebx
  104531:	00 41 50             	add    %al,0x50(%ecx)
  104534:	49                   	dec    %ecx
  104535:	43                   	inc    %ebx
  104536:	3a 20                	cmp    (%eax),%ah
  104538:	30 78 25             	xor    %bh,0x25(%eax)
  10453b:	78 0a                	js     104547 <__stpcpy+0xb49>
  10453d:	00 00                	add    %al,(%eax)
  10453f:	00 4e 4f             	add    %cl,0x4f(%esi)
  104542:	54                   	push   %esp
  104543:	20 56 45             	and    %dl,0x45(%esi)
  104546:	52                   	push   %edx
  104547:	49                   	dec    %ecx
  104548:	46                   	inc    %esi
  104549:	49                   	dec    %ecx
  10454a:	45                   	inc    %ebp
  10454b:	44                   	inc    %esp
  10454c:	2c 20                	sub    $0x20,%al
  10454e:	43                   	inc    %ebx
  10454f:	41                   	inc    %ecx
  104550:	4e                   	dec    %esi
  104551:	27                   	daa    
  104552:	54                   	push   %esp
  104553:	20 43 4f             	and    %al,0x4f(%ebx)
  104556:	4e                   	dec    %esi
  104557:	54                   	push   %esp
  104558:	49                   	dec    %ecx
  104559:	4e                   	dec    %esi
  10455a:	55                   	push   %ebp
  10455b:	45                   	inc    %ebp
  10455c:	21 0a                	and    %ecx,(%edx)
  10455e:	00 41 43             	add    %al,0x43(%ecx)
  104561:	50                   	push   %eax
  104562:	49                   	dec    %ecx
  104563:	20 69 6e             	and    %ch,0x6e(%ecx)
  104566:	69 74 69 61 6c 69 7a 	imul   $0x657a696c,0x61(%ecx,%ebp,2),%esi
  10456d:	65 
  10456e:	64 2e 0a 00          	fs or  %cs:%fs:(%eax),%al
  104572:	00 00                	add    %al,(%eax)
  104574:	46                   	inc    %esi
  104575:	41                   	inc    %ecx
  104576:	43                   	inc    %ebx
  104577:	50                   	push   %eax
  104578:	00 54 68 65          	add    %dl,0x65(%eax,%ebp,2)
  10457c:	72 65                	jb     1045e3 <__stpcpy+0xbe5>
  10457e:	20 69 73             	and    %ch,0x73(%ecx)
  104581:	20 61 20             	and    %ah,0x20(%ecx)
  104584:	50                   	push   %eax
  104585:	53                   	push   %ebx
  104586:	2f                   	das    
  104587:	32 20                	xor    (%eax),%ah
  104589:	63 6f 6e             	arpl   %bp,0x6e(%edi)
  10458c:	74 72                	je     104600 <__stpcpy+0xc02>
  10458e:	6f                   	outsl  %ds:(%esi),(%dx)
  10458f:	6c                   	insb   (%dx),%es:(%edi)
  104590:	6c                   	insb   (%dx),%es:(%edi)
  104591:	65                   	gs
  104592:	72 00                	jb     104594 <__stpcpy+0xb96>
  104594:	55                   	push   %ebp
  104595:	6e                   	outsb  %ds:(%esi),(%dx)
  104596:	61                   	popa   
  104597:	62 6c 65 20          	bound  %ebp,0x20(%ebp,%eiz,2)
  10459b:	74 6f                	je     10460c <__stpcpy+0xc0e>
  10459d:	20 66 69             	and    %ah,0x69(%esi)
  1045a0:	6e                   	outsb  %ds:(%esi),(%dx)
  1045a1:	64 20 61 20          	and    %ah,%fs:0x20(%ecx)
  1045a5:	50                   	push   %eax
  1045a6:	53                   	push   %ebx
  1045a7:	2f                   	das    
  1045a8:	32 20                	xor    (%eax),%ah
  1045aa:	63 6f 6e             	arpl   %bp,0x6e(%edi)
  1045ad:	74 72                	je     104621 <__stpcpy+0xc23>
  1045af:	6f                   	outsl  %ds:(%esi),(%dx)
  1045b0:	6c                   	insb   (%dx),%es:(%edi)
  1045b1:	6c                   	insb   (%dx),%es:(%edi)
  1045b2:	65                   	gs
  1045b3:	72 2e                	jb     1045e3 <__stpcpy+0xbe5>
  1045b5:	20 50 6f             	and    %dl,0x6f(%eax)
  1045b8:	73 73                	jae    10462d <__stpcpy+0xc2f>
  1045ba:	69 62 6c 65 20 66 61 	imul   $0x61662065,0x6c(%edx),%esp
  1045c1:	69 6c 75 72 65 20 6f 	imul   $0x666f2065,0x72(%ebp,%esi,2),%ebp
  1045c8:	66 
  1045c9:	20 66 65             	and    %ah,0x65(%esi)
  1045cc:	61                   	popa   
  1045cd:	74 75                	je     104644 <__stpcpy+0xc46>
  1045cf:	72 65                	jb     104636 <__stpcpy+0xc38>
  1045d1:	73 2e                	jae    104601 <__stpcpy+0xc03>
  1045d3:	0a 00                	or     (%eax),%al
  1045d5:	00 00                	add    %al,(%eax)
  1045d7:	00 41 43             	add    %al,0x43(%ecx)
  1045da:	50                   	push   %eax
  1045db:	49                   	dec    %ecx
  1045dc:	20 72 65             	and    %dh,0x65(%edx)
  1045df:	76 69                	jbe    10464a <__stpcpy+0xc4c>
  1045e1:	73 69                	jae    10464c <__stpcpy+0xc4e>
  1045e3:	6f                   	outsl  %ds:(%esi),(%dx)
  1045e4:	6e                   	outsb  %ds:(%esi),(%dx)
  1045e5:	20 6e 6f             	and    %ch,0x6f(%esi)
  1045e8:	74 20                	je     10460a <__stpcpy+0xc0c>
  1045ea:	63 61 70             	arpl   %sp,0x70(%ecx)
  1045ed:	61                   	popa   
  1045ee:	62 6c 65 20          	bound  %ebp,0x20(%ebp,%eiz,2)
  1045f2:	65 6e                	outsb  %gs:(%esi),(%dx)
  1045f4:	6f                   	outsl  %ds:(%esi),(%dx)
  1045f5:	75 67                	jne    10465e <__stpcpy+0xc60>
  1045f7:	68 20 74 6f 20       	push   $0x206f7420
  1045fc:	64                   	fs
  1045fd:	65                   	gs
  1045fe:	74 65                	je     104665 <__stpcpy+0xc67>
  104600:	72 6d                	jb     10466f <__stpcpy+0xc71>
  104602:	69 6e 65 20 38 30 34 	imul   $0x34303820,0x65(%esi),%ebp
  104609:	32 2e                	xor    (%esi),%ch
  10460b:	20 41 73             	and    %al,0x73(%ecx)
  10460e:	73 75                	jae    104685 <__stpcpy+0xc87>
  104610:	6d                   	insl   (%dx),%es:(%edi)
  104611:	69 6e 67 20 6f 6e 65 	imul   $0x656e6f20,0x67(%esi),%ebp
  104618:	20 65 78             	and    %ah,0x78(%ebp)
  10461b:	69 73 74 73 2e 2e 2e 	imul   $0x2e2e2e73,0x74(%ebx),%esi
  104622:	0a 00                	or     (%eax),%al
  104624:	53                   	push   %ebx
  104625:	74 61                	je     104688 <__stpcpy+0xc8a>
  104627:	72 74                	jb     10469d <__stpcpy+0xc9f>
  104629:	69 6e 67 20 50 53 2f 	imul   $0x2f535020,0x67(%esi),%ebp
  104630:	32 20                	xor    (%eax),%ah
  104632:	69 6e 69 74 69 61 6c 	imul   $0x6c616974,0x69(%esi),%ebp
  104639:	69 7a 61 74 69 6f 6e 	imul   $0x6e6f6974,0x61(%edx),%edi
  104640:	0a 00                	or     (%eax),%al
  104642:	00 00                	add    %al,(%eax)
  104644:	44                   	inc    %esp
  104645:	75 61                	jne    1046a8 <__stpcpy+0xcaa>
  104647:	6c                   	insb   (%dx),%es:(%edi)
  104648:	20 63 68             	and    %ah,0x68(%ebx)
  10464b:	61                   	popa   
  10464c:	6e                   	outsb  %ds:(%esi),(%dx)
  10464d:	6e                   	outsb  %ds:(%esi),(%dx)
  10464e:	65                   	gs
  10464f:	6c                   	insb   (%dx),%es:(%edi)
  104650:	20 50 53             	and    %dl,0x53(%eax)
  104653:	2f                   	das    
  104654:	32 20                	xor    (%eax),%ah
  104656:	63 6f 6e             	arpl   %bp,0x6e(%edi)
  104659:	74 72                	je     1046cd <__stpcpy+0xccf>
  10465b:	6f                   	outsl  %ds:(%esi),(%dx)
  10465c:	6c                   	insb   (%dx),%es:(%edi)
  10465d:	6c                   	insb   (%dx),%es:(%edi)
  10465e:	65                   	gs
  10465f:	72 2e                	jb     10468f <__stpcpy+0xc91>
  104661:	0a 00                	or     (%eax),%al
  104663:	00 53 69             	add    %dl,0x69(%ebx)
  104666:	6e                   	outsb  %ds:(%esi),(%dx)
  104667:	67 6c                	insb   (%dx),%es:(%di)
  104669:	65 20 63 68          	and    %ah,%gs:0x68(%ebx)
  10466d:	61                   	popa   
  10466e:	6e                   	outsb  %ds:(%esi),(%dx)
  10466f:	6e                   	outsb  %ds:(%esi),(%dx)
  104670:	65                   	gs
  104671:	6c                   	insb   (%dx),%es:(%edi)
  104672:	20 50 53             	and    %dl,0x53(%eax)
  104675:	2f                   	das    
  104676:	32 20                	xor    (%eax),%ah
  104678:	63 6f 6e             	arpl   %bp,0x6e(%edi)
  10467b:	74 72                	je     1046ef <__stpcpy+0xcf1>
  10467d:	6f                   	outsl  %ds:(%esi),(%dx)
  10467e:	6c                   	insb   (%dx),%es:(%edi)
  10467f:	6c                   	insb   (%dx),%es:(%edi)
  104680:	65                   	gs
  104681:	72 2e                	jb     1046b1 <__stpcpy+0xcb3>
  104683:	0a 00                	or     (%eax),%al
  104685:	50                   	push   %eax
  104686:	53                   	push   %ebx
  104687:	2f                   	das    
  104688:	32 20                	xor    (%eax),%ah
  10468a:	70 61                	jo     1046ed <__stpcpy+0xcef>
  10468c:	73 73                	jae    104701 <__stpcpy+0xd03>
  10468e:	65 64 20 73 65       	gs and %dh,%fs:%gs:0x65(%ebx)
  104693:	6c                   	insb   (%dx),%es:(%edi)
  104694:	66 2d 74 65          	sub    $0x6574,%ax
  104698:	73 74                	jae    10470e <__stpcpy+0xd10>
  10469a:	2e 0a 00             	or     %cs:(%eax),%al
  10469d:	00 00                	add    %al,(%eax)
  10469f:	00 50 65             	add    %dl,0x65(%eax)
  1046a2:	72 66                	jb     10470a <__stpcpy+0xd0c>
  1046a4:	6f                   	outsl  %ds:(%esi),(%dx)
  1046a5:	72 6d                	jb     104714 <__stpcpy+0xd16>
  1046a7:	69 6e 67 20 69 6e 74 	imul   $0x746e6920,0x67(%esi),%ebp
  1046ae:	65                   	gs
  1046af:	72 66                	jb     104717 <__stpcpy+0xd19>
  1046b1:	61                   	popa   
  1046b2:	63 65 20             	arpl   %sp,0x20(%ebp)
  1046b5:	74 65                	je     10471c <__stpcpy+0xd1e>
  1046b7:	73 74                	jae    10472d <__stpcpy+0xd2f>
  1046b9:	73 2e                	jae    1046e9 <__stpcpy+0xceb>
  1046bb:	2e 2e 0a 00          	cs or  %cs:(%eax),%al
  1046bf:	50                   	push   %eax
  1046c0:	6f                   	outsl  %ds:(%esi),(%dx)
  1046c1:	72 74                	jb     104737 <__stpcpy+0xd39>
  1046c3:	20 31                	and    %dh,(%ecx)
  1046c5:	20 70 61             	and    %dh,0x61(%eax)
  1046c8:	73 73                	jae    10473d <__stpcpy+0xd3f>
  1046ca:	2e 0a 00             	or     %cs:(%eax),%al
  1046cd:	50                   	push   %eax
  1046ce:	6f                   	outsl  %ds:(%esi),(%dx)
  1046cf:	72 74                	jb     104745 <__stpcpy+0xd47>
  1046d1:	20 31                	and    %dh,(%ecx)
  1046d3:	20 66 61             	and    %ah,0x61(%esi)
  1046d6:	69 6c 21 0a 00 50 6f 	imul   $0x726f5000,0xa(%ecx,%eiz,1),%ebp
  1046dd:	72 
  1046de:	74 20                	je     104700 <__stpcpy+0xd02>
  1046e0:	32 20                	xor    (%eax),%ah
  1046e2:	70 61                	jo     104745 <__stpcpy+0xd47>
  1046e4:	73 73                	jae    104759 <__stpcpy+0xd5b>
  1046e6:	2e 0a 00             	or     %cs:(%eax),%al
  1046e9:	50                   	push   %eax
  1046ea:	6f                   	outsl  %ds:(%esi),(%dx)
  1046eb:	72 74                	jb     104761 <__stpcpy+0xd63>
  1046ed:	20 32                	and    %dh,(%edx)
  1046ef:	20 66 61             	and    %ah,0x61(%esi)
  1046f2:	69 6c 21 0a 00 53 6b 	imul   $0x696b5300,0xa(%ecx,%eiz,1),%ebp
  1046f9:	69 
  1046fa:	70 70                	jo     10476c <__stpcpy+0xd6e>
  1046fc:	69 6e 67 20 50 6f 72 	imul   $0x726f5020,0x67(%esi),%ebp
  104703:	74 20                	je     104725 <__stpcpy+0xd27>
  104705:	32 2e                	xor    (%esi),%ch
  104707:	0a 00                	or     (%eax),%al
  104709:	45                   	inc    %ebp
  10470a:	6e                   	outsb  %ds:(%esi),(%dx)
  10470b:	61                   	popa   
  10470c:	62 6c 69 6e          	bound  %ebp,0x6e(%ecx,%ebp,2)
  104710:	67 20 50 53          	and    %dl,0x53(%bx,%si)
  104714:	2f                   	das    
  104715:	32 20                	xor    (%eax),%ah
  104717:	64                   	fs
  104718:	65                   	gs
  104719:	76 69                	jbe    104784 <__stpcpy+0xd86>
  10471b:	63 65 73             	arpl   %sp,0x73(%ebp)
  10471e:	2e 0a 00             	or     %cs:(%eax),%al
  104721:	44                   	inc    %esp
  104722:	65                   	gs
  104723:	76 69                	jbe    10478e <__stpcpy+0xd90>
  104725:	63 65 20             	arpl   %sp,0x20(%ebp)
  104728:	6f                   	outsl  %ds:(%esi),(%dx)
  104729:	6e                   	outsb  %ds:(%esi),(%dx)
  10472a:	20 70 6f             	and    %dh,0x6f(%eax)
  10472d:	72 74                	jb     1047a3 <__stpcpy+0xda5>
  10472f:	20 31                	and    %dh,(%ecx)
  104731:	20 65 6e             	and    %ah,0x6e(%ebp)
  104734:	61                   	popa   
  104735:	62 6c 65 64          	bound  %ebp,0x64(%ebp,%eiz,2)
  104739:	2e 0a 00             	or     %cs:(%eax),%al
  10473c:	44                   	inc    %esp
  10473d:	65                   	gs
  10473e:	76 69                	jbe    1047a9 <__stpcpy+0xdab>
  104740:	63 65 20             	arpl   %sp,0x20(%ebp)
  104743:	6f                   	outsl  %ds:(%esi),(%dx)
  104744:	6e                   	outsb  %ds:(%esi),(%dx)
  104745:	20 70 6f             	and    %dh,0x6f(%eax)
  104748:	72 74                	jb     1047be <__stpcpy+0xdc0>
  10474a:	20 32                	and    %dh,(%edx)
  10474c:	20 65 6e             	and    %ah,0x6e(%ebp)
  10474f:	61                   	popa   
  104750:	62 6c 65 64          	bound  %ebp,0x64(%ebp,%eiz,2)
  104754:	2e 0a 00             	or     %cs:(%eax),%al
  104757:	44                   	inc    %esp
  104758:	65                   	gs
  104759:	76 69                	jbe    1047c4 <__stpcpy+0xdc6>
  10475b:	63 65 20             	arpl   %sp,0x20(%ebp)
  10475e:	31 20                	xor    %esp,(%eax)
  104760:	72 65                	jb     1047c7 <__stpcpy+0xdc9>
  104762:	73 65                	jae    1047c9 <__stpcpy+0xdcb>
  104764:	74 20                	je     104786 <__stpcpy+0xd88>
  104766:	73 75                	jae    1047dd <__stpcpy+0xddf>
  104768:	63 63 65             	arpl   %sp,0x65(%ebx)
  10476b:	73 73                	jae    1047e0 <__stpcpy+0xde2>
  10476d:	2e 0a 00             	or     %cs:(%eax),%al
  104770:	44                   	inc    %esp
  104771:	65                   	gs
  104772:	76 69                	jbe    1047dd <__stpcpy+0xddf>
  104774:	63 65 20             	arpl   %sp,0x20(%ebp)
  104777:	32 20                	xor    (%eax),%ah
  104779:	72 65                	jb     1047e0 <__stpcpy+0xde2>
  10477b:	73 65                	jae    1047e2 <__stpcpy+0xde4>
  10477d:	74 20                	je     10479f <__stpcpy+0xda1>
  10477f:	73 75                	jae    1047f6 <__stpcpy+0xdf8>
  104781:	63 63 65             	arpl   %sp,0x65(%ebx)
  104784:	73 73                	jae    1047f9 <__stpcpy+0xdfb>
  104786:	2e 0a 00             	or     %cs:(%eax),%al
  104789:	44                   	inc    %esp
  10478a:	65                   	gs
  10478b:	76 69                	jbe    1047f6 <__stpcpy+0xdf8>
  10478d:	63 65 20             	arpl   %sp,0x20(%ebp)
  104790:	32 20                	xor    (%eax),%ah
  104792:	72 65                	jb     1047f9 <__stpcpy+0xdfb>
  104794:	73 65                	jae    1047fb <__stpcpy+0xdfd>
  104796:	74 20                	je     1047b8 <__stpcpy+0xdba>
  104798:	66 61                	popaw  
  10479a:	69 6c 2e 0a 00 00 50 	imul   $0x53500000,0xa(%esi,%ebp,1),%ebp
  1047a1:	53 
  1047a2:	2f                   	das    
  1047a3:	32 20                	xor    (%eax),%ah
  1047a5:	66 61                	popaw  
  1047a7:	69 6c 65 64 20 73 65 	imul   $0x6c657320,0x64(%ebp,%eiz,2),%ebp
  1047ae:	6c 
  1047af:	66 2d 74 65          	sub    $0x6574,%ax
  1047b3:	73 74                	jae    104829 <__stpcpy+0xe2b>
  1047b5:	21 20                	and    %esp,(%eax)
  1047b7:	54                   	push   %esp
  1047b8:	72 79                	jb     104833 <__stpcpy+0xe35>
  1047ba:	69 6e 67 20 73 65 74 	imul   $0x74657320,0x67(%esi),%ebp
  1047c1:	75 70                	jne    104833 <__stpcpy+0xe35>
  1047c3:	20 6f 6e             	and    %ch,0x6e(%edi)
  1047c6:	63 65 20             	arpl   %sp,0x20(%ebp)
  1047c9:	6d                   	insl   (%dx),%es:(%edi)
  1047ca:	6f                   	outsl  %ds:(%esi),(%dx)
  1047cb:	72 65                	jb     104832 <__stpcpy+0xe34>
  1047cd:	2e 2e 2e 0a 00       	cs cs or %cs:(%eax),%al
  1047d2:	00 00                	add    %al,(%eax)
  1047d4:	46                   	inc    %esi
  1047d5:	61                   	popa   
  1047d6:	69 6c 65 64 20 74 6f 	imul   $0x206f7420,0x64(%ebp,%eiz,2),%ebp
  1047dd:	20 
  1047de:	73 65                	jae    104845 <__stpcpy+0xe47>
  1047e0:	74 20                	je     104802 <__stpcpy+0xe04>
  1047e2:	75 70                	jne    104854 <__stpcpy+0xe56>
  1047e4:	20 50 53             	and    %dl,0x53(%eax)
  1047e7:	2f                   	das    
  1047e8:	32 20                	xor    (%eax),%ah
  1047ea:	66 6f                	outsw  %ds:(%esi),(%dx)
  1047ec:	72 20                	jb     10480e <__stpcpy+0xe10>
  1047ee:	74 68                	je     104858 <__stpcpy+0xe5a>
  1047f0:	65 20 73 65          	and    %dh,%gs:0x65(%ebx)
  1047f4:	63 6f 6e             	arpl   %bp,0x6e(%edi)
  1047f7:	64 20 74 69 6d       	and    %dh,%fs:0x6d(%ecx,%ebp,2)
  1047fc:	65 2e 20 41 62       	gs and %al,%cs:%gs:0x62(%ecx)
  104801:	6f                   	outsl  %ds:(%esi),(%dx)
  104802:	72 74                	jb     104878 <__stpcpy+0xe7a>
  104804:	2e 00 00             	add    %al,%cs:(%eax)
  104807:	00 f4                	add    %dh,%ah
  104809:	26 10 00             	adc    %al,%es:(%eax)
  10480c:	c1 26 10             	shll   $0x10,(%esi)
  10480f:	00 23                	add    %ah,(%ebx)
  104811:	27                   	daa    
  104812:	10 00                	adc    %al,(%eax)
  104814:	a7                   	cmpsl  %es:(%edi),%ds:(%esi)
  104815:	27                   	daa    
  104816:	10 00                	adc    %al,(%eax)
  104818:	a7                   	cmpsl  %es:(%edi),%ds:(%esi)
  104819:	27                   	daa    
  10481a:	10 00                	adc    %al,(%eax)
  10481c:	a7                   	cmpsl  %es:(%edi),%ds:(%esi)
  10481d:	27                   	daa    
  10481e:	10 00                	adc    %al,(%eax)
  104820:	a7                   	cmpsl  %es:(%edi),%ds:(%esi)
  104821:	27                   	daa    
  104822:	10 00                	adc    %al,(%eax)
  104824:	a7                   	cmpsl  %es:(%edi),%ds:(%esi)
  104825:	27                   	daa    
  104826:	10 00                	adc    %al,(%eax)
  104828:	a7                   	cmpsl  %es:(%edi),%ds:(%esi)
  104829:	27                   	daa    
  10482a:	10 00                	adc    %al,(%eax)
  10482c:	a7                   	cmpsl  %es:(%edi),%ds:(%esi)
  10482d:	27                   	daa    
  10482e:	10 00                	adc    %al,(%eax)
  104830:	a7                   	cmpsl  %es:(%edi),%ds:(%esi)
  104831:	27                   	daa    
  104832:	10 00                	adc    %al,(%eax)
  104834:	a7                   	cmpsl  %es:(%edi),%ds:(%esi)
  104835:	27                   	daa    
  104836:	10 00                	adc    %al,(%eax)
  104838:	a7                   	cmpsl  %es:(%edi),%ds:(%esi)
  104839:	27                   	daa    
  10483a:	10 00                	adc    %al,(%eax)
  10483c:	a7                   	cmpsl  %es:(%edi),%ds:(%esi)
  10483d:	27                   	daa    
  10483e:	10 00                	adc    %al,(%eax)
  104840:	a7                   	cmpsl  %es:(%edi),%ds:(%esi)
  104841:	27                   	daa    
  104842:	10 00                	adc    %al,(%eax)
  104844:	a7                   	cmpsl  %es:(%edi),%ds:(%esi)
  104845:	27                   	daa    
  104846:	10 00                	adc    %al,(%eax)
  104848:	a7                   	cmpsl  %es:(%edi),%ds:(%esi)
  104849:	27                   	daa    
  10484a:	10 00                	adc    %al,(%eax)
  10484c:	dc 26                	fsubl  (%esi)
  10484e:	10 00                	adc    %al,(%eax)
  104850:	a7                   	cmpsl  %es:(%edi),%ds:(%esi)
  104851:	27                   	daa    
  104852:	10 00                	adc    %al,(%eax)
  104854:	4f                   	dec    %edi
  104855:	27                   	daa    
  104856:	10 00                	adc    %al,(%eax)
  104858:	a7                   	cmpsl  %es:(%edi),%ds:(%esi)
  104859:	27                   	daa    
  10485a:	10 00                	adc    %al,(%eax)
  10485c:	a7                   	cmpsl  %es:(%edi),%ds:(%esi)
  10485d:	27                   	daa    
  10485e:	10 00                	adc    %al,(%eax)
  104860:	7b 27                	jnp    104889 <__stpcpy+0xe8b>
  104862:	10 00                	adc    %al,(%eax)
  104864:	4f                   	dec    %edi
  104865:	53                   	push   %ebx
  104866:	20 5a 69             	and    %bl,0x69(%edx)
  104869:	6e                   	outsb  %ds:(%esi),(%dx)
  10486a:	20 68 61             	and    %ch,0x61(%eax)
  10486d:	73 20                	jae    10488f <__stpcpy+0xe91>
  10486f:	63 72 61             	arpl   %si,0x61(%edx)
  104872:	73 68                	jae    1048dc <__stpcpy+0xede>
  104874:	65 64 20 74 6f 20    	gs and %dh,%fs:%gs:0x20(%edi,%ebp,2)
  10487a:	75 6e                	jne    1048ea <__stpcpy+0xeec>
  10487c:	72 65                	jb     1048e3 <__stpcpy+0xee5>
  10487e:	63 6f 76             	arpl   %bp,0x76(%edi)
  104881:	65                   	gs
  104882:	72 61                	jb     1048e5 <__stpcpy+0xee7>
  104884:	62 6c 65 20          	bound  %ebp,0x20(%ebp,%eiz,2)
  104888:	67 72 6f             	addr16 jb 1048fa <__stpcpy+0xefc>
  10488b:	75 6e                	jne    1048fb <__stpcpy+0xefd>
  10488d:	64                   	fs
  10488e:	73 00                	jae    104890 <__stpcpy+0xe92>
  104890:	45                   	inc    %ebp
  104891:	72 72                	jb     104905 <__stpcpy+0xf07>
  104893:	6f                   	outsl  %ds:(%esi),(%dx)
  104894:	72 3a                	jb     1048d0 <__stpcpy+0xed2>
  104896:	20 00                	and    %al,(%eax)
  104898:	53                   	push   %ebx
  104899:	74 61                	je     1048fc <__stpcpy+0xefe>
  10489b:	63 6b 74             	arpl   %bp,0x74(%ebx)
  10489e:	72 61                	jb     104901 <__stpcpy+0xf03>
  1048a0:	63 65 20             	arpl   %sp,0x20(%ebp)
  1048a3:	66 6f                	outsw  %ds:(%esi),(%dx)
  1048a5:	6c                   	insb   (%dx),%es:(%edi)
  1048a6:	6c                   	insb   (%dx),%es:(%edi)
  1048a7:	6f                   	outsl  %ds:(%esi),(%dx)
  1048a8:	77 73                	ja     10491d <__stpcpy+0xf1f>
  1048aa:	3a 00                	cmp    (%eax),%al
  1048ac:	53                   	push   %ebx
  1048ad:	79 73                	jns    104922 <__stpcpy+0xf24>
  1048af:	74 65                	je     104916 <__stpcpy+0xf18>
  1048b1:	6d                   	insl   (%dx),%es:(%edi)
  1048b2:	20 68 61             	and    %ch,0x61(%eax)
  1048b5:	6c                   	insb   (%dx),%es:(%edi)
  1048b6:	74 65                	je     10491d <__stpcpy+0xf1f>
  1048b8:	64 20 74 6f 20       	and    %dh,%fs:0x20(%edi,%ebp,2)
  1048bd:	70 72                	jo     104931 <__stpcpy+0xf33>
  1048bf:	6f                   	outsl  %ds:(%esi),(%dx)
  1048c0:	74 65                	je     104927 <__stpcpy+0xf29>
  1048c2:	63 74 20 79          	arpl   %si,0x79(%eax,%eiz,1)
  1048c6:	6f                   	outsl  %ds:(%esi),(%dx)
  1048c7:	75 72                	jne    10493b <__stpcpy+0xf3d>
  1048c9:	20 50 43             	and    %dl,0x43(%eax)
  1048cc:	00 00                	add    %al,(%eax)
  1048ce:	00 00                	add    %al,(%eax)
  1048d0:	50                   	push   %eax
  1048d1:	6c                   	insb   (%dx),%es:(%edi)
  1048d2:	65                   	gs
  1048d3:	61                   	popa   
  1048d4:	73 65                	jae    10493b <__stpcpy+0xf3d>
  1048d6:	20 72 65             	and    %dh,0x65(%edx)
  1048d9:	62 6f 6f             	bound  %ebp,0x6f(%edi)
  1048dc:	74 20                	je     1048fe <__stpcpy+0xf00>
  1048de:	61                   	popa   
  1048df:	6e                   	outsb  %ds:(%esi),(%dx)
  1048e0:	64 20 66 69          	and    %ah,%fs:0x69(%esi)
  1048e4:	78 20                	js     104906 <__stpcpy+0xf08>
  1048e6:	74 68                	je     104950 <__stpcpy+0xf52>
  1048e8:	65 20 61 62          	and    %ah,%gs:0x62(%ecx)
  1048ec:	6f                   	outsl  %ds:(%esi),(%dx)
  1048ed:	76 65                	jbe    104954 <__stpcpy+0xf56>
  1048ef:	20 65 72             	and    %ah,0x72(%ebp)
  1048f2:	72 6f                	jb     104963 <__stpcpy+0xf65>
  1048f4:	72 00                	jb     1048f6 <__stpcpy+0xef8>
  1048f6:	30 00                	xor    %al,(%eax)

Disassembly of section .eh_frame:

001048f8 <.eh_frame>:
  1048f8:	14 00                	adc    $0x0,%al
  1048fa:	00 00                	add    %al,(%eax)
  1048fc:	00 00                	add    %al,(%eax)
  1048fe:	00 00                	add    %al,(%eax)
  104900:	01 7a 52             	add    %edi,0x52(%edx)
  104903:	00 01                	add    %al,(%ecx)
  104905:	7c 08                	jl     10490f <__stpcpy+0xf11>
  104907:	01 1b                	add    %ebx,(%ebx)
  104909:	0c 04                	or     $0x4,%al
  10490b:	04 88                	add    $0x88,%al
  10490d:	01 00                	add    %eax,(%eax)
  10490f:	00 24 00             	add    %ah,(%eax,%eax,1)
  104912:	00 00                	add    %al,(%eax)
  104914:	1c 00                	sbb    $0x0,%al
  104916:	00 00                	add    %al,(%eax)
  104918:	c2 b8 ff             	ret    $0xffb8
  10491b:	ff                   	(bad)  
  10491c:	ed                   	in     (%dx),%eax
  10491d:	03 00                	add    (%eax),%eax
  10491f:	00 00                	add    %al,(%eax)
  104921:	41                   	inc    %ecx
  104922:	0e                   	push   %cs
  104923:	08 85 02 42 0d 05    	or     %al,0x50d4202(%ebp)
  104929:	44                   	inc    %esp
  10492a:	83 03 03             	addl   $0x3,(%ebx)
  10492d:	e4 03                	in     $0x3,%al
  10492f:	c3                   	ret    
  104930:	41                   	inc    %ecx
  104931:	c5 0c 04             	lds    (%esp,%eax,1),%ecx
  104934:	04 00                	add    $0x0,%al
  104936:	00 00                	add    %al,(%eax)
  104938:	1c 00                	sbb    $0x0,%al
  10493a:	00 00                	add    %al,(%eax)
  10493c:	44                   	inc    %esp
  10493d:	00 00                	add    %al,(%eax)
  10493f:	00 87 bc ff ff 0a    	add    %al,0xaffffbc(%edi)
  104945:	01 00                	add    %eax,(%eax)
  104947:	00 00                	add    %al,(%eax)
  104949:	41                   	inc    %ecx
  10494a:	0e                   	push   %cs
  10494b:	08 85 02 42 0d 05    	or     %al,0x50d4202(%ebp)
  104951:	03 06                	add    (%esi),%eax
  104953:	01 c5                	add    %eax,%ebp
  104955:	0c 04                	or     $0x4,%al
  104957:	04 1c                	add    $0x1c,%al
  104959:	00 00                	add    %al,(%eax)
  10495b:	00 64 00 00          	add    %ah,0x0(%eax,%eax,1)
  10495f:	00 71 bd             	add    %dh,-0x43(%ecx)
  104962:	ff                   	(bad)  
  104963:	ff 9e 00 00 00 00    	lcall  *0x0(%esi)
  104969:	41                   	inc    %ecx
  10496a:	0e                   	push   %cs
  10496b:	08 85 02 42 0d 05    	or     %al,0x50d4202(%ebp)
  104971:	02 9a c5 0c 04 04    	add    0x4040cc5(%edx),%bl
  104977:	00 24 00             	add    %ah,(%eax,%eax,1)
  10497a:	00 00                	add    %al,(%eax)
  10497c:	84 00                	test   %al,(%eax)
  10497e:	00 00                	add    %al,(%eax)
  104980:	ef                   	out    %eax,(%dx)
  104981:	bd ff ff 9d 00       	mov    $0x9dffff,%ebp
  104986:	00 00                	add    %al,(%eax)
  104988:	00 41 0e             	add    %al,0xe(%ecx)
  10498b:	08 85 02 42 0d 05    	or     %al,0x50d4202(%ebp)
  104991:	45                   	inc    %ebp
  104992:	86 03                	xchg   %al,(%ebx)
  104994:	83 04 02 92          	addl   $0xffffff92,(%edx,%eax,1)
  104998:	c3                   	ret    
  104999:	41                   	inc    %ecx
  10499a:	c6 41 c5 0c          	movb   $0xc,-0x3b(%ecx)
  10499e:	04 04                	add    $0x4,%al
  1049a0:	1c 00                	sbb    $0x0,%al
  1049a2:	00 00                	add    %al,(%eax)
  1049a4:	ac                   	lods   %ds:(%esi),%al
  1049a5:	00 00                	add    %al,(%eax)
  1049a7:	00 64 be ff          	add    %ah,-0x1(%esi,%edi,4)
  1049ab:	ff 1d 00 00 00 00    	lcall  *0x0
  1049b1:	41                   	inc    %ecx
  1049b2:	0e                   	push   %cs
  1049b3:	08 85 02 42 0d 05    	or     %al,0x50d4202(%ebp)
  1049b9:	59                   	pop    %ecx
  1049ba:	c5 0c 04             	lds    (%esp,%eax,1),%ecx
  1049bd:	04 00                	add    $0x0,%al
  1049bf:	00 1c 00             	add    %bl,(%eax,%eax,1)
  1049c2:	00 00                	add    %al,(%eax)
  1049c4:	cc                   	int3   
  1049c5:	00 00                	add    %al,(%eax)
  1049c7:	00 61 be             	add    %ah,-0x42(%ecx)
  1049ca:	ff                   	(bad)  
  1049cb:	ff 53 00             	call   *0x0(%ebx)
  1049ce:	00 00                	add    %al,(%eax)
  1049d0:	00 41 0e             	add    %al,0xe(%ecx)
  1049d3:	08 85 02 42 0d 05    	or     %al,0x50d4202(%ebp)
  1049d9:	02 4f c5             	add    -0x3b(%edi),%cl
  1049dc:	0c 04                	or     $0x4,%al
  1049de:	04 00                	add    $0x0,%al
  1049e0:	1c 00                	sbb    $0x0,%al
  1049e2:	00 00                	add    %al,(%eax)
  1049e4:	ec                   	in     (%dx),%al
  1049e5:	00 00                	add    %al,(%eax)
  1049e7:	00 94 be ff ff 14 00 	add    %dl,0x14ffff(%esi,%edi,4)
  1049ee:	00 00                	add    %al,(%eax)
  1049f0:	00 41 0e             	add    %al,0xe(%ecx)
  1049f3:	08 85 02 42 0d 05    	or     %al,0x50d4202(%ebp)
  1049f9:	50                   	push   %eax
  1049fa:	c5 0c 04             	lds    (%esp,%eax,1),%ecx
  1049fd:	04 00                	add    $0x0,%al
  1049ff:	00 1c 00             	add    %bl,(%eax,%eax,1)
  104a02:	00 00                	add    %al,(%eax)
  104a04:	0c 01                	or     $0x1,%al
  104a06:	00 00                	add    %al,(%eax)
  104a08:	88 be ff ff 14 00    	mov    %bh,0x14ffff(%esi)
  104a0e:	00 00                	add    %al,(%eax)
  104a10:	00 41 0e             	add    %al,0xe(%ecx)
  104a13:	08 85 02 42 0d 05    	or     %al,0x50d4202(%ebp)
  104a19:	50                   	push   %eax
  104a1a:	c5 0c 04             	lds    (%esp,%eax,1),%ecx
  104a1d:	04 00                	add    $0x0,%al
  104a1f:	00 1c 00             	add    %bl,(%eax,%eax,1)
  104a22:	00 00                	add    %al,(%eax)
  104a24:	2c 01                	sub    $0x1,%al
  104a26:	00 00                	add    %al,(%eax)
  104a28:	7c be                	jl     1049e8 <__stpcpy+0xfea>
  104a2a:	ff                   	(bad)  
  104a2b:	ff 14 00             	call   *(%eax,%eax,1)
  104a2e:	00 00                	add    %al,(%eax)
  104a30:	00 41 0e             	add    %al,0xe(%ecx)
  104a33:	08 85 02 42 0d 05    	or     %al,0x50d4202(%ebp)
  104a39:	50                   	push   %eax
  104a3a:	c5 0c 04             	lds    (%esp,%eax,1),%ecx
  104a3d:	04 00                	add    $0x0,%al
  104a3f:	00 1c 00             	add    %bl,(%eax,%eax,1)
  104a42:	00 00                	add    %al,(%eax)
  104a44:	4c                   	dec    %esp
  104a45:	01 00                	add    %eax,(%eax)
  104a47:	00 70 be             	add    %dh,-0x42(%eax)
  104a4a:	ff                   	(bad)  
  104a4b:	ff 14 00             	call   *(%eax,%eax,1)
  104a4e:	00 00                	add    %al,(%eax)
  104a50:	00 41 0e             	add    %al,0xe(%ecx)
  104a53:	08 85 02 42 0d 05    	or     %al,0x50d4202(%ebp)
  104a59:	50                   	push   %eax
  104a5a:	c5 0c 04             	lds    (%esp,%eax,1),%ecx
  104a5d:	04 00                	add    $0x0,%al
  104a5f:	00 1c 00             	add    %bl,(%eax,%eax,1)
  104a62:	00 00                	add    %al,(%eax)
  104a64:	6c                   	insb   (%dx),%es:(%edi)
  104a65:	01 00                	add    %eax,(%eax)
  104a67:	00 64 be ff          	add    %ah,-0x1(%esi,%edi,4)
  104a6b:	ff 14 00             	call   *(%eax,%eax,1)
  104a6e:	00 00                	add    %al,(%eax)
  104a70:	00 41 0e             	add    %al,0xe(%ecx)
  104a73:	08 85 02 42 0d 05    	or     %al,0x50d4202(%ebp)
  104a79:	50                   	push   %eax
  104a7a:	c5 0c 04             	lds    (%esp,%eax,1),%ecx
  104a7d:	04 00                	add    $0x0,%al
  104a7f:	00 1c 00             	add    %bl,(%eax,%eax,1)
  104a82:	00 00                	add    %al,(%eax)
  104a84:	8c 01                	mov    %es,(%ecx)
  104a86:	00 00                	add    %al,(%eax)
  104a88:	58                   	pop    %eax
  104a89:	be ff ff 14 00       	mov    $0x14ffff,%esi
  104a8e:	00 00                	add    %al,(%eax)
  104a90:	00 41 0e             	add    %al,0xe(%ecx)
  104a93:	08 85 02 42 0d 05    	or     %al,0x50d4202(%ebp)
  104a99:	50                   	push   %eax
  104a9a:	c5 0c 04             	lds    (%esp,%eax,1),%ecx
  104a9d:	04 00                	add    $0x0,%al
  104a9f:	00 1c 00             	add    %bl,(%eax,%eax,1)
  104aa2:	00 00                	add    %al,(%eax)
  104aa4:	ac                   	lods   %ds:(%esi),%al
  104aa5:	01 00                	add    %eax,(%eax)
  104aa7:	00 4c be ff          	add    %cl,-0x1(%esi,%edi,4)
  104aab:	ff 14 00             	call   *(%eax,%eax,1)
  104aae:	00 00                	add    %al,(%eax)
  104ab0:	00 41 0e             	add    %al,0xe(%ecx)
  104ab3:	08 85 02 42 0d 05    	or     %al,0x50d4202(%ebp)
  104ab9:	50                   	push   %eax
  104aba:	c5 0c 04             	lds    (%esp,%eax,1),%ecx
  104abd:	04 00                	add    $0x0,%al
  104abf:	00 1c 00             	add    %bl,(%eax,%eax,1)
  104ac2:	00 00                	add    %al,(%eax)
  104ac4:	cc                   	int3   
  104ac5:	01 00                	add    %eax,(%eax)
  104ac7:	00 40 be             	add    %al,-0x42(%eax)
  104aca:	ff                   	(bad)  
  104acb:	ff 14 00             	call   *(%eax,%eax,1)
  104ace:	00 00                	add    %al,(%eax)
  104ad0:	00 41 0e             	add    %al,0xe(%ecx)
  104ad3:	08 85 02 42 0d 05    	or     %al,0x50d4202(%ebp)
  104ad9:	50                   	push   %eax
  104ada:	c5 0c 04             	lds    (%esp,%eax,1),%ecx
  104add:	04 00                	add    $0x0,%al
  104adf:	00 1c 00             	add    %bl,(%eax,%eax,1)
  104ae2:	00 00                	add    %al,(%eax)
  104ae4:	ec                   	in     (%dx),%al
  104ae5:	01 00                	add    %eax,(%eax)
  104ae7:	00 34 be             	add    %dh,(%esi,%edi,4)
  104aea:	ff                   	(bad)  
  104aeb:	ff 14 00             	call   *(%eax,%eax,1)
  104aee:	00 00                	add    %al,(%eax)
  104af0:	00 41 0e             	add    %al,0xe(%ecx)
  104af3:	08 85 02 42 0d 05    	or     %al,0x50d4202(%ebp)
  104af9:	50                   	push   %eax
  104afa:	c5 0c 04             	lds    (%esp,%eax,1),%ecx
  104afd:	04 00                	add    $0x0,%al
  104aff:	00 1c 00             	add    %bl,(%eax,%eax,1)
  104b02:	00 00                	add    %al,(%eax)
  104b04:	0c 02                	or     $0x2,%al
  104b06:	00 00                	add    %al,(%eax)
  104b08:	28 be ff ff 14 00    	sub    %bh,0x14ffff(%esi)
  104b0e:	00 00                	add    %al,(%eax)
  104b10:	00 41 0e             	add    %al,0xe(%ecx)
  104b13:	08 85 02 42 0d 05    	or     %al,0x50d4202(%ebp)
  104b19:	50                   	push   %eax
  104b1a:	c5 0c 04             	lds    (%esp,%eax,1),%ecx
  104b1d:	04 00                	add    $0x0,%al
  104b1f:	00 1c 00             	add    %bl,(%eax,%eax,1)
  104b22:	00 00                	add    %al,(%eax)
  104b24:	2c 02                	sub    $0x2,%al
  104b26:	00 00                	add    %al,(%eax)
  104b28:	1c be                	sbb    $0xbe,%al
  104b2a:	ff                   	(bad)  
  104b2b:	ff 14 00             	call   *(%eax,%eax,1)
  104b2e:	00 00                	add    %al,(%eax)
  104b30:	00 41 0e             	add    %al,0xe(%ecx)
  104b33:	08 85 02 42 0d 05    	or     %al,0x50d4202(%ebp)
  104b39:	50                   	push   %eax
  104b3a:	c5 0c 04             	lds    (%esp,%eax,1),%ecx
  104b3d:	04 00                	add    $0x0,%al
  104b3f:	00 1c 00             	add    %bl,(%eax,%eax,1)
  104b42:	00 00                	add    %al,(%eax)
  104b44:	4c                   	dec    %esp
  104b45:	02 00                	add    (%eax),%al
  104b47:	00 10                	add    %dl,(%eax)
  104b49:	be ff ff 14 00       	mov    $0x14ffff,%esi
  104b4e:	00 00                	add    %al,(%eax)
  104b50:	00 41 0e             	add    %al,0xe(%ecx)
  104b53:	08 85 02 42 0d 05    	or     %al,0x50d4202(%ebp)
  104b59:	50                   	push   %eax
  104b5a:	c5 0c 04             	lds    (%esp,%eax,1),%ecx
  104b5d:	04 00                	add    $0x0,%al
  104b5f:	00 1c 00             	add    %bl,(%eax,%eax,1)
  104b62:	00 00                	add    %al,(%eax)
  104b64:	6c                   	insb   (%dx),%es:(%edi)
  104b65:	02 00                	add    (%eax),%al
  104b67:	00 04 be             	add    %al,(%esi,%edi,4)
  104b6a:	ff                   	(bad)  
  104b6b:	ff 14 00             	call   *(%eax,%eax,1)
  104b6e:	00 00                	add    %al,(%eax)
  104b70:	00 41 0e             	add    %al,0xe(%ecx)
  104b73:	08 85 02 42 0d 05    	or     %al,0x50d4202(%ebp)
  104b79:	50                   	push   %eax
  104b7a:	c5 0c 04             	lds    (%esp,%eax,1),%ecx
  104b7d:	04 00                	add    $0x0,%al
  104b7f:	00 1c 00             	add    %bl,(%eax,%eax,1)
  104b82:	00 00                	add    %al,(%eax)
  104b84:	8c 02                	mov    %es,(%edx)
  104b86:	00 00                	add    %al,(%eax)
  104b88:	f8                   	clc    
  104b89:	bd ff ff 14 00       	mov    $0x14ffff,%ebp
  104b8e:	00 00                	add    %al,(%eax)
  104b90:	00 41 0e             	add    %al,0xe(%ecx)
  104b93:	08 85 02 42 0d 05    	or     %al,0x50d4202(%ebp)
  104b99:	50                   	push   %eax
  104b9a:	c5 0c 04             	lds    (%esp,%eax,1),%ecx
  104b9d:	04 00                	add    $0x0,%al
  104b9f:	00 1c 00             	add    %bl,(%eax,%eax,1)
  104ba2:	00 00                	add    %al,(%eax)
  104ba4:	ac                   	lods   %ds:(%esi),%al
  104ba5:	02 00                	add    (%eax),%al
  104ba7:	00 ec                	add    %ch,%ah
  104ba9:	bd ff ff 14 00       	mov    $0x14ffff,%ebp
  104bae:	00 00                	add    %al,(%eax)
  104bb0:	00 41 0e             	add    %al,0xe(%ecx)
  104bb3:	08 85 02 42 0d 05    	or     %al,0x50d4202(%ebp)
  104bb9:	50                   	push   %eax
  104bba:	c5 0c 04             	lds    (%esp,%eax,1),%ecx
  104bbd:	04 00                	add    $0x0,%al
  104bbf:	00 1c 00             	add    %bl,(%eax,%eax,1)
  104bc2:	00 00                	add    %al,(%eax)
  104bc4:	cc                   	int3   
  104bc5:	02 00                	add    (%eax),%al
  104bc7:	00 e0                	add    %ah,%al
  104bc9:	bd ff ff 14 00       	mov    $0x14ffff,%ebp
  104bce:	00 00                	add    %al,(%eax)
  104bd0:	00 41 0e             	add    %al,0xe(%ecx)
  104bd3:	08 85 02 42 0d 05    	or     %al,0x50d4202(%ebp)
  104bd9:	50                   	push   %eax
  104bda:	c5 0c 04             	lds    (%esp,%eax,1),%ecx
  104bdd:	04 00                	add    $0x0,%al
  104bdf:	00 1c 00             	add    %bl,(%eax,%eax,1)
  104be2:	00 00                	add    %al,(%eax)
  104be4:	ec                   	in     (%dx),%al
  104be5:	02 00                	add    (%eax),%al
  104be7:	00 d4                	add    %dl,%ah
  104be9:	bd ff ff 14 00       	mov    $0x14ffff,%ebp
  104bee:	00 00                	add    %al,(%eax)
  104bf0:	00 41 0e             	add    %al,0xe(%ecx)
  104bf3:	08 85 02 42 0d 05    	or     %al,0x50d4202(%ebp)
  104bf9:	50                   	push   %eax
  104bfa:	c5 0c 04             	lds    (%esp,%eax,1),%ecx
  104bfd:	04 00                	add    $0x0,%al
  104bff:	00 1c 00             	add    %bl,(%eax,%eax,1)
  104c02:	00 00                	add    %al,(%eax)
  104c04:	0c 03                	or     $0x3,%al
  104c06:	00 00                	add    %al,(%eax)
  104c08:	c8 bd ff ff          	enter  $0xffbd,$0xff
  104c0c:	14 00                	adc    $0x0,%al
  104c0e:	00 00                	add    %al,(%eax)
  104c10:	00 41 0e             	add    %al,0xe(%ecx)
  104c13:	08 85 02 42 0d 05    	or     %al,0x50d4202(%ebp)
  104c19:	50                   	push   %eax
  104c1a:	c5 0c 04             	lds    (%esp,%eax,1),%ecx
  104c1d:	04 00                	add    $0x0,%al
  104c1f:	00 1c 00             	add    %bl,(%eax,%eax,1)
  104c22:	00 00                	add    %al,(%eax)
  104c24:	2c 03                	sub    $0x3,%al
  104c26:	00 00                	add    %al,(%eax)
  104c28:	bc bd ff ff 15       	mov    $0x15ffffbd,%esp
  104c2d:	09 00                	or     %eax,(%eax)
  104c2f:	00 00                	add    %al,(%eax)
  104c31:	41                   	inc    %ecx
  104c32:	0e                   	push   %cs
  104c33:	08 85 02 42 0d 05    	or     %al,0x50d4202(%ebp)
  104c39:	03 11                	add    (%ecx),%edx
  104c3b:	09 c5                	or     %eax,%ebp
  104c3d:	0c 04                	or     $0x4,%al
  104c3f:	04 1c                	add    $0x1c,%al
  104c41:	00 00                	add    %al,(%eax)
  104c43:	00 4c 03 00          	add    %cl,0x0(%ebx,%eax,1)
  104c47:	00 b1 c6 ff ff 3f    	add    %dh,0x3fffffc6(%ecx)
  104c4d:	00 00                	add    %al,(%eax)
  104c4f:	00 00                	add    %al,(%eax)
  104c51:	41                   	inc    %ecx
  104c52:	0e                   	push   %cs
  104c53:	08 85 02 42 0d 05    	or     %al,0x50d4202(%ebp)
  104c59:	7b c5                	jnp    104c20 <__stpcpy+0x1222>
  104c5b:	0c 04                	or     $0x4,%al
  104c5d:	04 00                	add    $0x0,%al
  104c5f:	00 1c 00             	add    %bl,(%eax,%eax,1)
  104c62:	00 00                	add    %al,(%eax)
  104c64:	6c                   	insb   (%dx),%es:(%edi)
  104c65:	03 00                	add    (%eax),%eax
  104c67:	00 d0                	add    %dl,%al
  104c69:	c6                   	(bad)  
  104c6a:	ff                   	(bad)  
  104c6b:	ff 40 00             	incl   0x0(%eax)
  104c6e:	00 00                	add    %al,(%eax)
  104c70:	00 41 0e             	add    %al,0xe(%ecx)
  104c73:	08 85 02 42 0d 05    	or     %al,0x50d4202(%ebp)
  104c79:	7c c5                	jl     104c40 <__stpcpy+0x1242>
  104c7b:	0c 04                	or     $0x4,%al
  104c7d:	04 00                	add    $0x0,%al
  104c7f:	00 1c 00             	add    %bl,(%eax,%eax,1)
  104c82:	00 00                	add    %al,(%eax)
  104c84:	8c 03                	mov    %es,(%ebx)
  104c86:	00 00                	add    %al,(%eax)
  104c88:	f0 c6                	lock (bad) 
  104c8a:	ff                   	(bad)  
  104c8b:	ff                   	(bad)  
  104c8c:	79 00                	jns    104c8e <__stpcpy+0x1290>
  104c8e:	00 00                	add    %al,(%eax)
  104c90:	00 41 0e             	add    %al,0xe(%ecx)
  104c93:	08 85 02 42 0d 05    	or     %al,0x50d4202(%ebp)
  104c99:	02 75 c5             	add    -0x3b(%ebp),%dh
  104c9c:	0c 04                	or     $0x4,%al
  104c9e:	04 00                	add    $0x0,%al
  104ca0:	1c 00                	sbb    $0x0,%al
  104ca2:	00 00                	add    %al,(%eax)
  104ca4:	ac                   	lods   %ds:(%esi),%al
  104ca5:	03 00                	add    (%eax),%eax
  104ca7:	00 49 c7             	add    %cl,-0x39(%ecx)
  104caa:	ff                   	(bad)  
  104cab:	ff 46 00             	incl   0x0(%esi)
  104cae:	00 00                	add    %al,(%eax)
  104cb0:	00 41 0e             	add    %al,0xe(%ecx)
  104cb3:	08 85 02 42 0d 05    	or     %al,0x50d4202(%ebp)
  104cb9:	02 42 c5             	add    -0x3b(%edx),%al
  104cbc:	0c 04                	or     $0x4,%al
  104cbe:	04 00                	add    $0x0,%al
  104cc0:	1c 00                	sbb    $0x0,%al
  104cc2:	00 00                	add    %al,(%eax)
  104cc4:	cc                   	int3   
  104cc5:	03 00                	add    (%eax),%eax
  104cc7:	00 6f c7             	add    %ch,-0x39(%edi)
  104cca:	ff                   	(bad)  
  104ccb:	ff 1e                	lcall  *(%esi)
  104ccd:	00 00                	add    %al,(%eax)
  104ccf:	00 00                	add    %al,(%eax)
  104cd1:	41                   	inc    %ecx
  104cd2:	0e                   	push   %cs
  104cd3:	08 85 02 42 0d 05    	or     %al,0x50d4202(%ebp)
  104cd9:	5a                   	pop    %edx
  104cda:	c5 0c 04             	lds    (%esp,%eax,1),%ecx
  104cdd:	04 00                	add    $0x0,%al
  104cdf:	00 1c 00             	add    %bl,(%eax,%eax,1)
  104ce2:	00 00                	add    %al,(%eax)
  104ce4:	ec                   	in     (%dx),%al
  104ce5:	03 00                	add    (%eax),%eax
  104ce7:	00 6d c7             	add    %ch,-0x39(%ebp)
  104cea:	ff                   	(bad)  
  104ceb:	ff 1d 00 00 00 00    	lcall  *0x0
  104cf1:	41                   	inc    %ecx
  104cf2:	0e                   	push   %cs
  104cf3:	08 85 02 42 0d 05    	or     %al,0x50d4202(%ebp)
  104cf9:	59                   	pop    %ecx
  104cfa:	c5 0c 04             	lds    (%esp,%eax,1),%ecx
  104cfd:	04 00                	add    $0x0,%al
  104cff:	00 20                	add    %ah,(%eax)
  104d01:	00 00                	add    %al,(%eax)
  104d03:	00 0c 04             	add    %cl,(%esp,%eax,1)
  104d06:	00 00                	add    %al,(%eax)
  104d08:	6a c7                	push   $0xffffffc7
  104d0a:	ff                   	(bad)  
  104d0b:	ff 58 00             	lcall  *0x0(%eax)
  104d0e:	00 00                	add    %al,(%eax)
  104d10:	00 41 0e             	add    %al,0xe(%ecx)
  104d13:	08 85 02 42 0d 05    	or     %al,0x50d4202(%ebp)
  104d19:	44                   	inc    %esp
  104d1a:	83 03 02             	addl   $0x2,(%ebx)
  104d1d:	4f                   	dec    %edi
  104d1e:	c3                   	ret    
  104d1f:	41                   	inc    %ecx
  104d20:	c5 0c 04             	lds    (%esp,%eax,1),%ecx
  104d23:	04 20                	add    $0x20,%al
  104d25:	00 00                	add    %al,(%eax)
  104d27:	00 30                	add    %dh,(%eax)
  104d29:	04 00                	add    $0x0,%al
  104d2b:	00 9e c7 ff ff 58    	add    %bl,0x58ffffc7(%esi)
  104d31:	00 00                	add    %al,(%eax)
  104d33:	00 00                	add    %al,(%eax)
  104d35:	41                   	inc    %ecx
  104d36:	0e                   	push   %cs
  104d37:	08 85 02 42 0d 05    	or     %al,0x50d4202(%ebp)
  104d3d:	44                   	inc    %esp
  104d3e:	83 03 02             	addl   $0x2,(%ebx)
  104d41:	4f                   	dec    %edi
  104d42:	c3                   	ret    
  104d43:	41                   	inc    %ecx
  104d44:	c5 0c 04             	lds    (%esp,%eax,1),%ecx
  104d47:	04 1c                	add    $0x1c,%al
  104d49:	00 00                	add    %al,(%eax)
  104d4b:	00 54 04 00          	add    %dl,0x0(%esp,%eax,1)
  104d4f:	00 d2                	add    %dl,%dl
  104d51:	c7                   	(bad)  
  104d52:	ff                   	(bad)  
  104d53:	ff 1c 00             	lcall  *(%eax,%eax,1)
  104d56:	00 00                	add    %al,(%eax)
  104d58:	00 41 0e             	add    %al,0xe(%ecx)
  104d5b:	08 85 02 42 0d 05    	or     %al,0x50d4202(%ebp)
  104d61:	58                   	pop    %eax
  104d62:	c5 0c 04             	lds    (%esp,%eax,1),%ecx
  104d65:	04 00                	add    $0x0,%al
  104d67:	00 1c 00             	add    %bl,(%eax,%eax,1)
  104d6a:	00 00                	add    %al,(%eax)
  104d6c:	74 04                	je     104d72 <__stpcpy+0x1374>
  104d6e:	00 00                	add    %al,(%eax)
  104d70:	ce                   	into   
  104d71:	c7                   	(bad)  
  104d72:	ff                   	(bad)  
  104d73:	ff 1c 00             	lcall  *(%eax,%eax,1)
  104d76:	00 00                	add    %al,(%eax)
  104d78:	00 41 0e             	add    %al,0xe(%ecx)
  104d7b:	08 85 02 42 0d 05    	or     %al,0x50d4202(%ebp)
  104d81:	58                   	pop    %eax
  104d82:	c5 0c 04             	lds    (%esp,%eax,1),%ecx
  104d85:	04 00                	add    $0x0,%al
  104d87:	00 1c 00             	add    %bl,(%eax,%eax,1)
  104d8a:	00 00                	add    %al,(%eax)
  104d8c:	94                   	xchg   %eax,%esp
  104d8d:	04 00                	add    $0x0,%al
  104d8f:	00 ca                	add    %cl,%dl
  104d91:	c7                   	(bad)  
  104d92:	ff                   	(bad)  
  104d93:	ff                   	(bad)  
  104d94:	ec                   	in     (%dx),%al
  104d95:	00 00                	add    %al,(%eax)
  104d97:	00 00                	add    %al,(%eax)
  104d99:	41                   	inc    %ecx
  104d9a:	0e                   	push   %cs
  104d9b:	08 85 02 42 0d 05    	or     %al,0x50d4202(%ebp)
  104da1:	02 e8                	add    %al,%ch
  104da3:	c5 0c 04             	lds    (%esp,%eax,1),%ecx
  104da6:	04 00                	add    $0x0,%al
  104da8:	1c 00                	sbb    $0x0,%al
  104daa:	00 00                	add    %al,(%eax)
  104dac:	b4 04                	mov    $0x4,%ah
  104dae:	00 00                	add    %al,(%eax)
  104db0:	96                   	xchg   %eax,%esi
  104db1:	c8 ff ff 1e          	enter  $0xffff,$0x1e
  104db5:	00 00                	add    %al,(%eax)
  104db7:	00 00                	add    %al,(%eax)
  104db9:	41                   	inc    %ecx
  104dba:	0e                   	push   %cs
  104dbb:	08 85 02 42 0d 05    	or     %al,0x50d4202(%ebp)
  104dc1:	5a                   	pop    %edx
  104dc2:	c5 0c 04             	lds    (%esp,%eax,1),%ecx
  104dc5:	04 00                	add    $0x0,%al
  104dc7:	00 1c 00             	add    %bl,(%eax,%eax,1)
  104dca:	00 00                	add    %al,(%eax)
  104dcc:	d4 04                	aam    $0x4
  104dce:	00 00                	add    %al,(%eax)
  104dd0:	94                   	xchg   %eax,%esp
  104dd1:	c8 ff ff 1d          	enter  $0xffff,$0x1d
  104dd5:	00 00                	add    %al,(%eax)
  104dd7:	00 00                	add    %al,(%eax)
  104dd9:	41                   	inc    %ecx
  104dda:	0e                   	push   %cs
  104ddb:	08 85 02 42 0d 05    	or     %al,0x50d4202(%ebp)
  104de1:	59                   	pop    %ecx
  104de2:	c5 0c 04             	lds    (%esp,%eax,1),%ecx
  104de5:	04 00                	add    $0x0,%al
  104de7:	00 1c 00             	add    %bl,(%eax,%eax,1)
  104dea:	00 00                	add    %al,(%eax)
  104dec:	f4                   	hlt    
  104ded:	04 00                	add    $0x0,%al
  104def:	00 91 c8 ff ff 67    	add    %dl,0x67ffffc8(%ecx)
  104df5:	00 00                	add    %al,(%eax)
  104df7:	00 00                	add    %al,(%eax)
  104df9:	41                   	inc    %ecx
  104dfa:	0e                   	push   %cs
  104dfb:	08 85 02 42 0d 05    	or     %al,0x50d4202(%ebp)
  104e01:	02 63 c5             	add    -0x3b(%ebx),%ah
  104e04:	0c 04                	or     $0x4,%al
  104e06:	04 00                	add    $0x0,%al
  104e08:	1c 00                	sbb    $0x0,%al
  104e0a:	00 00                	add    %al,(%eax)
  104e0c:	14 05                	adc    $0x5,%al
  104e0e:	00 00                	add    %al,(%eax)
  104e10:	d8 c8                	fmul   %st(0),%st
  104e12:	ff                   	(bad)  
  104e13:	ff 46 00             	incl   0x0(%esi)
  104e16:	00 00                	add    %al,(%eax)
  104e18:	00 41 0e             	add    %al,0xe(%ecx)
  104e1b:	08 85 02 42 0d 05    	or     %al,0x50d4202(%ebp)
  104e21:	02 42 c5             	add    -0x3b(%edx),%al
  104e24:	0c 04                	or     $0x4,%al
  104e26:	04 00                	add    $0x0,%al
  104e28:	1c 00                	sbb    $0x0,%al
  104e2a:	00 00                	add    %al,(%eax)
  104e2c:	34 05                	xor    $0x5,%al
  104e2e:	00 00                	add    %al,(%eax)
  104e30:	fe c8                	dec    %al
  104e32:	ff                   	(bad)  
  104e33:	ff 1e                	lcall  *(%esi)
  104e35:	00 00                	add    %al,(%eax)
  104e37:	00 00                	add    %al,(%eax)
  104e39:	41                   	inc    %ecx
  104e3a:	0e                   	push   %cs
  104e3b:	08 85 02 42 0d 05    	or     %al,0x50d4202(%ebp)
  104e41:	5a                   	pop    %edx
  104e42:	c5 0c 04             	lds    (%esp,%eax,1),%ecx
  104e45:	04 00                	add    $0x0,%al
  104e47:	00 1c 00             	add    %bl,(%eax,%eax,1)
  104e4a:	00 00                	add    %al,(%eax)
  104e4c:	54                   	push   %esp
  104e4d:	05 00 00 fc c8       	add    $0xc8fc0000,%eax
  104e52:	ff                   	(bad)  
  104e53:	ff 12                	call   *(%edx)
  104e55:	00 00                	add    %al,(%eax)
  104e57:	00 00                	add    %al,(%eax)
  104e59:	41                   	inc    %ecx
  104e5a:	0e                   	push   %cs
  104e5b:	08 85 02 42 0d 05    	or     %al,0x50d4202(%ebp)
  104e61:	4e                   	dec    %esi
  104e62:	c5 0c 04             	lds    (%esp,%eax,1),%ecx
  104e65:	04 00                	add    $0x0,%al
  104e67:	00 1c 00             	add    %bl,(%eax,%eax,1)
  104e6a:	00 00                	add    %al,(%eax)
  104e6c:	74 05                	je     104e73 <__stpcpy+0x1475>
  104e6e:	00 00                	add    %al,(%eax)
  104e70:	ee                   	out    %al,(%dx)
  104e71:	c8 ff ff a7          	enter  $0xffff,$0xa7
  104e75:	00 00                	add    %al,(%eax)
  104e77:	00 00                	add    %al,(%eax)
  104e79:	41                   	inc    %ecx
  104e7a:	0e                   	push   %cs
  104e7b:	08 85 02 42 0d 05    	or     %al,0x50d4202(%ebp)
  104e81:	02 a3 c5 0c 04 04    	add    0x4040cc5(%ebx),%ah
  104e87:	00 1c 00             	add    %bl,(%eax,%eax,1)
  104e8a:	00 00                	add    %al,(%eax)
  104e8c:	94                   	xchg   %eax,%esp
  104e8d:	05 00 00 75 c9       	add    $0xc9750000,%eax
  104e92:	ff                   	(bad)  
  104e93:	ff 14 00             	call   *(%eax,%eax,1)
  104e96:	00 00                	add    %al,(%eax)
  104e98:	00 41 0e             	add    %al,0xe(%ecx)
  104e9b:	08 85 02 42 0d 05    	or     %al,0x50d4202(%ebp)
  104ea1:	50                   	push   %eax
  104ea2:	c5 0c 04             	lds    (%esp,%eax,1),%ecx
  104ea5:	04 00                	add    $0x0,%al
  104ea7:	00 1c 00             	add    %bl,(%eax,%eax,1)
  104eaa:	00 00                	add    %al,(%eax)
  104eac:	b4 05                	mov    $0x5,%ah
  104eae:	00 00                	add    %al,(%eax)
  104eb0:	69 c9 ff ff fa 00    	imul   $0xfaffff,%ecx,%ecx
  104eb6:	00 00                	add    %al,(%eax)
  104eb8:	00 41 0e             	add    %al,0xe(%ecx)
  104ebb:	08 85 02 42 0d 05    	or     %al,0x50d4202(%ebp)
  104ec1:	02 f6                	add    %dh,%dh
  104ec3:	c5 0c 04             	lds    (%esp,%eax,1),%ecx
  104ec6:	04 00                	add    $0x0,%al
  104ec8:	1c 00                	sbb    $0x0,%al
  104eca:	00 00                	add    %al,(%eax)
  104ecc:	d4 05                	aam    $0x5
  104ece:	00 00                	add    %al,(%eax)
  104ed0:	43                   	inc    %ebx
  104ed1:	ca ff ff             	lret   $0xffff
  104ed4:	ae                   	scas   %es:(%edi),%al
  104ed5:	00 00                	add    %al,(%eax)
  104ed7:	00 00                	add    %al,(%eax)
  104ed9:	41                   	inc    %ecx
  104eda:	0e                   	push   %cs
  104edb:	08 85 02 42 0d 05    	or     %al,0x50d4202(%ebp)
  104ee1:	02 aa c5 0c 04 04    	add    0x4040cc5(%edx),%ch
  104ee7:	00 1c 00             	add    %bl,(%eax,%eax,1)
  104eea:	00 00                	add    %al,(%eax)
  104eec:	f4                   	hlt    
  104eed:	05 00 00 d1 ca       	add    $0xcad10000,%eax
  104ef2:	ff                   	(bad)  
  104ef3:	ff 1f                	lcall  *(%edi)
  104ef5:	00 00                	add    %al,(%eax)
  104ef7:	00 00                	add    %al,(%eax)
  104ef9:	41                   	inc    %ecx
  104efa:	0e                   	push   %cs
  104efb:	08 85 02 42 0d 05    	or     %al,0x50d4202(%ebp)
  104f01:	5b                   	pop    %ebx
  104f02:	c5 0c 04             	lds    (%esp,%eax,1),%ecx
  104f05:	04 00                	add    $0x0,%al
  104f07:	00 1c 00             	add    %bl,(%eax,%eax,1)
  104f0a:	00 00                	add    %al,(%eax)
  104f0c:	14 06                	adc    $0x6,%al
  104f0e:	00 00                	add    %al,(%eax)
  104f10:	d0 ca                	ror    %dl
  104f12:	ff                   	(bad)  
  104f13:	ff 21                	jmp    *(%ecx)
  104f15:	00 00                	add    %al,(%eax)
  104f17:	00 00                	add    %al,(%eax)
  104f19:	41                   	inc    %ecx
  104f1a:	0e                   	push   %cs
  104f1b:	08 85 02 42 0d 05    	or     %al,0x50d4202(%ebp)
  104f21:	5d                   	pop    %ebp
  104f22:	c5 0c 04             	lds    (%esp,%eax,1),%ecx
  104f25:	04 00                	add    $0x0,%al
  104f27:	00 1c 00             	add    %bl,(%eax,%eax,1)
  104f2a:	00 00                	add    %al,(%eax)
  104f2c:	34 06                	xor    $0x6,%al
  104f2e:	00 00                	add    %al,(%eax)
  104f30:	d1 ca                	ror    %edx
  104f32:	ff                   	(bad)  
  104f33:	ff 50 00             	call   *0x0(%eax)
  104f36:	00 00                	add    %al,(%eax)
  104f38:	00 41 0e             	add    %al,0xe(%ecx)
  104f3b:	08 85 02 42 0d 05    	or     %al,0x50d4202(%ebp)
  104f41:	02 4c c5 0c          	add    0xc(%ebp,%eax,8),%cl
  104f45:	04 04                	add    $0x4,%al
  104f47:	00 1c 00             	add    %bl,(%eax,%eax,1)
  104f4a:	00 00                	add    %al,(%eax)
  104f4c:	54                   	push   %esp
  104f4d:	06                   	push   %es
  104f4e:	00 00                	add    %al,(%eax)
  104f50:	01 cb                	add    %ecx,%ebx
  104f52:	ff                   	(bad)  
  104f53:	ff 37                	pushl  (%edi)
  104f55:	00 00                	add    %al,(%eax)
  104f57:	00 00                	add    %al,(%eax)
  104f59:	41                   	inc    %ecx
  104f5a:	0e                   	push   %cs
  104f5b:	08 85 02 42 0d 05    	or     %al,0x50d4202(%ebp)
  104f61:	73 c5                	jae    104f28 <__stpcpy+0x152a>
  104f63:	0c 04                	or     $0x4,%al
  104f65:	04 00                	add    $0x0,%al
  104f67:	00 1c 00             	add    %bl,(%eax,%eax,1)
  104f6a:	00 00                	add    %al,(%eax)
  104f6c:	74 06                	je     104f74 <__stpcpy+0x1576>
  104f6e:	00 00                	add    %al,(%eax)
  104f70:	18 cb                	sbb    %cl,%bl
  104f72:	ff                   	(bad)  
  104f73:	ff                   	(bad)  
  104f74:	3b 00                	cmp    (%eax),%eax
  104f76:	00 00                	add    %al,(%eax)
  104f78:	00 41 0e             	add    %al,0xe(%ecx)
  104f7b:	08 85 02 42 0d 05    	or     %al,0x50d4202(%ebp)
  104f81:	77 c5                	ja     104f48 <__stpcpy+0x154a>
  104f83:	0c 04                	or     $0x4,%al
  104f85:	04 00                	add    $0x0,%al
  104f87:	00 1c 00             	add    %bl,(%eax,%eax,1)
  104f8a:	00 00                	add    %al,(%eax)
  104f8c:	94                   	xchg   %eax,%esp
  104f8d:	06                   	push   %es
  104f8e:	00 00                	add    %al,(%eax)
  104f90:	33 cb                	xor    %ebx,%ecx
  104f92:	ff                   	(bad)  
  104f93:	ff 9b 00 00 00 00    	lcall  *0x0(%ebx)
  104f99:	41                   	inc    %ecx
  104f9a:	0e                   	push   %cs
  104f9b:	08 85 02 42 0d 05    	or     %al,0x50d4202(%ebp)
  104fa1:	02 97 c5 0c 04 04    	add    0x4040cc5(%edi),%dl
  104fa7:	00 1c 00             	add    %bl,(%eax,%eax,1)
  104faa:	00 00                	add    %al,(%eax)
  104fac:	b4 06                	mov    $0x6,%ah
  104fae:	00 00                	add    %al,(%eax)
  104fb0:	ae                   	scas   %es:(%edi),%al
  104fb1:	cb                   	lret   
  104fb2:	ff                   	(bad)  
  104fb3:	ff c2                	inc    %edx
  104fb5:	00 00                	add    %al,(%eax)
  104fb7:	00 00                	add    %al,(%eax)
  104fb9:	41                   	inc    %ecx
  104fba:	0e                   	push   %cs
  104fbb:	08 85 02 42 0d 05    	or     %al,0x50d4202(%ebp)
  104fc1:	02 be c5 0c 04 04    	add    0x4040cc5(%esi),%bh
  104fc7:	00 1c 00             	add    %bl,(%eax,%eax,1)
  104fca:	00 00                	add    %al,(%eax)
  104fcc:	d4 06                	aam    $0x6
  104fce:	00 00                	add    %al,(%eax)
  104fd0:	50                   	push   %eax
  104fd1:	cc                   	int3   
  104fd2:	ff                   	(bad)  
  104fd3:	ff 12                	call   *(%edx)
  104fd5:	00 00                	add    %al,(%eax)
  104fd7:	00 00                	add    %al,(%eax)
  104fd9:	41                   	inc    %ecx
  104fda:	0e                   	push   %cs
  104fdb:	08 85 02 42 0d 05    	or     %al,0x50d4202(%ebp)
  104fe1:	4e                   	dec    %esi
  104fe2:	c5 0c 04             	lds    (%esp,%eax,1),%ecx
  104fe5:	04 00                	add    $0x0,%al
  104fe7:	00 1c 00             	add    %bl,(%eax,%eax,1)
  104fea:	00 00                	add    %al,(%eax)
  104fec:	f4                   	hlt    
  104fed:	06                   	push   %es
  104fee:	00 00                	add    %al,(%eax)
  104ff0:	42                   	inc    %edx
  104ff1:	cc                   	int3   
  104ff2:	ff                   	(bad)  
  104ff3:	ff 6d 02             	ljmp   *0x2(%ebp)
  104ff6:	00 00                	add    %al,(%eax)
  104ff8:	00 41 0e             	add    %al,0xe(%ecx)
  104ffb:	08 85 02 42 0d 05    	or     %al,0x50d4202(%ebp)
  105001:	03 69 02             	add    0x2(%ecx),%ebp
  105004:	c5 0c 04             	lds    (%esp,%eax,1),%ecx
  105007:	04 1c                	add    $0x1c,%al
  105009:	00 00                	add    %al,(%eax)
  10500b:	00 14 07             	add    %dl,(%edi,%eax,1)
  10500e:	00 00                	add    %al,(%eax)
  105010:	8f                   	(bad)  
  105011:	ce                   	into   
  105012:	ff                   	(bad)  
  105013:	ff 68 00             	ljmp   *0x0(%eax)
  105016:	00 00                	add    %al,(%eax)
  105018:	00 41 0e             	add    %al,0xe(%ecx)
  10501b:	08 85 02 42 0d 05    	or     %al,0x50d4202(%ebp)
  105021:	02 64 c5 0c          	add    0xc(%ebp,%eax,8),%ah
  105025:	04 04                	add    $0x4,%al
  105027:	00 1c 00             	add    %bl,(%eax,%eax,1)
  10502a:	00 00                	add    %al,(%eax)
  10502c:	34 07                	xor    $0x7,%al
  10502e:	00 00                	add    %al,(%eax)
  105030:	d7                   	xlat   %ds:(%ebx)
  105031:	ce                   	into   
  105032:	ff                   	(bad)  
  105033:	ff 0a                	decl   (%edx)
  105035:	00 00                	add    %al,(%eax)
  105037:	00 00                	add    %al,(%eax)
  105039:	41                   	inc    %ecx
  10503a:	0e                   	push   %cs
  10503b:	08 85 02 42 0d 05    	or     %al,0x50d4202(%ebp)
  105041:	46                   	inc    %esi
  105042:	c5 0c 04             	lds    (%esp,%eax,1),%ecx
  105045:	04 00                	add    $0x0,%al
  105047:	00 1c 00             	add    %bl,(%eax,%eax,1)
  10504a:	00 00                	add    %al,(%eax)
  10504c:	54                   	push   %esp
  10504d:	07                   	pop    %es
  10504e:	00 00                	add    %al,(%eax)
  105050:	c1 ce ff             	ror    $0xff,%esi
  105053:	ff 1e                	lcall  *(%esi)
  105055:	00 00                	add    %al,(%eax)
  105057:	00 00                	add    %al,(%eax)
  105059:	41                   	inc    %ecx
  10505a:	0e                   	push   %cs
  10505b:	08 85 02 42 0d 05    	or     %al,0x50d4202(%ebp)
  105061:	5a                   	pop    %edx
  105062:	c5 0c 04             	lds    (%esp,%eax,1),%ecx
  105065:	04 00                	add    $0x0,%al
  105067:	00 1c 00             	add    %bl,(%eax,%eax,1)
  10506a:	00 00                	add    %al,(%eax)
  10506c:	74 07                	je     105075 <__stpcpy+0x1677>
  10506e:	00 00                	add    %al,(%eax)
  105070:	bf ce ff ff 1d       	mov    $0x1dffffce,%edi
  105075:	00 00                	add    %al,(%eax)
  105077:	00 00                	add    %al,(%eax)
  105079:	41                   	inc    %ecx
  10507a:	0e                   	push   %cs
  10507b:	08 85 02 42 0d 05    	or     %al,0x50d4202(%ebp)
  105081:	59                   	pop    %ecx
  105082:	c5 0c 04             	lds    (%esp,%eax,1),%ecx
  105085:	04 00                	add    $0x0,%al
  105087:	00 1c 00             	add    %bl,(%eax,%eax,1)
  10508a:	00 00                	add    %al,(%eax)
  10508c:	94                   	xchg   %eax,%esp
  10508d:	07                   	pop    %es
  10508e:	00 00                	add    %al,(%eax)
  105090:	bc ce ff ff bc       	mov    $0xbcffffce,%esp
  105095:	00 00                	add    %al,(%eax)
  105097:	00 00                	add    %al,(%eax)
  105099:	41                   	inc    %ecx
  10509a:	0e                   	push   %cs
  10509b:	08 85 02 42 0d 05    	or     %al,0x50d4202(%ebp)
  1050a1:	02 b8 c5 0c 04 04    	add    0x4040cc5(%eax),%bh
  1050a7:	00 1c 00             	add    %bl,(%eax,%eax,1)
  1050aa:	00 00                	add    %al,(%eax)
  1050ac:	b4 07                	mov    $0x7,%ah
  1050ae:	00 00                	add    %al,(%eax)
  1050b0:	58                   	pop    %eax
  1050b1:	cf                   	iret   
  1050b2:	ff                   	(bad)  
  1050b3:	ff 07                	incl   (%edi)
  1050b5:	05 00 00 00 41       	add    $0x41000000,%eax
  1050ba:	0e                   	push   %cs
  1050bb:	08 85 02 42 0d 05    	or     %al,0x50d4202(%ebp)
  1050c1:	03 03                	add    (%ebx),%eax
  1050c3:	05 c5 0c 04 04       	add    $0x4040cc5,%eax
  1050c8:	1c 00                	sbb    $0x0,%al
  1050ca:	00 00                	add    %al,(%eax)
  1050cc:	d4 07                	aam    $0x7
  1050ce:	00 00                	add    %al,(%eax)
  1050d0:	3f                   	aas    
  1050d1:	d4 ff                	aam    $0xff
  1050d3:	ff 1f                	lcall  *(%edi)
  1050d5:	00 00                	add    %al,(%eax)
  1050d7:	00 00                	add    %al,(%eax)
  1050d9:	41                   	inc    %ecx
  1050da:	0e                   	push   %cs
  1050db:	08 85 02 42 0d 05    	or     %al,0x50d4202(%ebp)
  1050e1:	5b                   	pop    %ebx
  1050e2:	c5 0c 04             	lds    (%esp,%eax,1),%ecx
  1050e5:	04 00                	add    $0x0,%al
  1050e7:	00 1c 00             	add    %bl,(%eax,%eax,1)
  1050ea:	00 00                	add    %al,(%eax)
  1050ec:	f4                   	hlt    
  1050ed:	07                   	pop    %es
  1050ee:	00 00                	add    %al,(%eax)
  1050f0:	3e                   	ds
  1050f1:	d4 ff                	aam    $0xff
  1050f3:	ff 1f                	lcall  *(%edi)
  1050f5:	00 00                	add    %al,(%eax)
  1050f7:	00 00                	add    %al,(%eax)
  1050f9:	41                   	inc    %ecx
  1050fa:	0e                   	push   %cs
  1050fb:	08 85 02 42 0d 05    	or     %al,0x50d4202(%ebp)
  105101:	5b                   	pop    %ebx
  105102:	c5 0c 04             	lds    (%esp,%eax,1),%ecx
  105105:	04 00                	add    $0x0,%al
  105107:	00 1c 00             	add    %bl,(%eax,%eax,1)
  10510a:	00 00                	add    %al,(%eax)
  10510c:	14 08                	adc    $0x8,%al
  10510e:	00 00                	add    %al,(%eax)
  105110:	3d d4 ff ff 20       	cmp    $0x20ffffd4,%eax
  105115:	00 00                	add    %al,(%eax)
  105117:	00 00                	add    %al,(%eax)
  105119:	41                   	inc    %ecx
  10511a:	0e                   	push   %cs
  10511b:	08 85 02 42 0d 05    	or     %al,0x50d4202(%ebp)
  105121:	5c                   	pop    %esp
  105122:	c5 0c 04             	lds    (%esp,%eax,1),%ecx
  105125:	04 00                	add    $0x0,%al
  105127:	00 1c 00             	add    %bl,(%eax,%eax,1)
  10512a:	00 00                	add    %al,(%eax)
  10512c:	34 08                	xor    $0x8,%al
  10512e:	00 00                	add    %al,(%eax)
  105130:	3d d4 ff ff 81       	cmp    $0x81ffffd4,%eax
  105135:	00 00                	add    %al,(%eax)
  105137:	00 00                	add    %al,(%eax)
  105139:	41                   	inc    %ecx
  10513a:	0e                   	push   %cs
  10513b:	08 85 02 42 0d 05    	or     %al,0x50d4202(%ebp)
  105141:	02 7d c5             	add    -0x3b(%ebp),%bh
  105144:	0c 04                	or     $0x4,%al
  105146:	04 00                	add    $0x0,%al
  105148:	20 00                	and    %al,(%eax)
  10514a:	00 00                	add    %al,(%eax)
  10514c:	54                   	push   %esp
  10514d:	08 00                	or     %al,(%eax)
  10514f:	00 9e d4 ff ff 78    	add    %bl,0x78ffffd4(%esi)
  105155:	00 00                	add    %al,(%eax)
  105157:	00 00                	add    %al,(%eax)
  105159:	41                   	inc    %ecx
  10515a:	0e                   	push   %cs
  10515b:	08 85 02 42 0d 05    	or     %al,0x50d4202(%ebp)
  105161:	44                   	inc    %esp
  105162:	83 03 02             	addl   $0x2,(%ebx)
  105165:	6f                   	outsl  %ds:(%esi),(%dx)
  105166:	c3                   	ret    
  105167:	41                   	inc    %ecx
  105168:	c5 0c 04             	lds    (%esp,%eax,1),%ecx
  10516b:	04 1c                	add    $0x1c,%al
  10516d:	00 00                	add    %al,(%eax)
  10516f:	00 78 08             	add    %bh,0x8(%eax)
  105172:	00 00                	add    %al,(%eax)
  105174:	f2 d4 ff             	repnz aam $0xff
  105177:	ff 20                	jmp    *(%eax)
  105179:	00 00                	add    %al,(%eax)
  10517b:	00 00                	add    %al,(%eax)
  10517d:	41                   	inc    %ecx
  10517e:	0e                   	push   %cs
  10517f:	08 85 02 42 0d 05    	or     %al,0x50d4202(%ebp)
  105185:	5c                   	pop    %esp
  105186:	c5 0c 04             	lds    (%esp,%eax,1),%ecx
  105189:	04 00                	add    $0x0,%al
  10518b:	00 1c 00             	add    %bl,(%eax,%eax,1)
  10518e:	00 00                	add    %al,(%eax)
  105190:	98                   	cwtl   
  105191:	08 00                	or     %al,(%eax)
  105193:	00 f2                	add    %dh,%dl
  105195:	d4 ff                	aam    $0xff
  105197:	ff 56 01             	call   *0x1(%esi)
  10519a:	00 00                	add    %al,(%eax)
  10519c:	00 41 0e             	add    %al,0xe(%ecx)
  10519f:	08 85 02 42 0d 05    	or     %al,0x50d4202(%ebp)
  1051a5:	03 52 01             	add    0x1(%edx),%edx
  1051a8:	c5 0c 04             	lds    (%esp,%eax,1),%ecx
  1051ab:	04 24                	add    $0x24,%al
  1051ad:	00 00                	add    %al,(%eax)
  1051af:	00 b8 08 00 00 28    	add    %bh,0x28000008(%eax)
  1051b5:	d6                   	(bad)  
  1051b6:	ff                   	(bad)  
  1051b7:	ff 1a                	lcall  *(%edx)
  1051b9:	02 00                	add    (%eax),%al
  1051bb:	00 00                	add    %al,(%eax)
  1051bd:	41                   	inc    %ecx
  1051be:	0e                   	push   %cs
  1051bf:	08 85 02 42 0d 05    	or     %al,0x50d4202(%ebp)
  1051c5:	44                   	inc    %esp
  1051c6:	83 03 03             	addl   $0x3,(%ebx)
  1051c9:	11 02                	adc    %eax,(%edx)
  1051cb:	c3                   	ret    
  1051cc:	41                   	inc    %ecx
  1051cd:	c5 0c 04             	lds    (%esp,%eax,1),%ecx
  1051d0:	04 00                	add    $0x0,%al
  1051d2:	00 00                	add    %al,(%eax)
  1051d4:	1c 00                	sbb    $0x0,%al
  1051d6:	00 00                	add    %al,(%eax)
  1051d8:	e0 08                	loopne 1051e2 <__stpcpy+0x17e4>
  1051da:	00 00                	add    %al,(%eax)
  1051dc:	1a d8                	sbb    %al,%bl
  1051de:	ff                   	(bad)  
  1051df:	ff 2b                	ljmp   *(%ebx)
  1051e1:	00 00                	add    %al,(%eax)
  1051e3:	00 00                	add    %al,(%eax)
  1051e5:	41                   	inc    %ecx
  1051e6:	0e                   	push   %cs
  1051e7:	08 85 02 42 0d 05    	or     %al,0x50d4202(%ebp)
  1051ed:	67 c5 0c             	lds    (%si),%ecx
  1051f0:	04 04                	add    $0x4,%al
  1051f2:	00 00                	add    %al,(%eax)
  1051f4:	1c 00                	sbb    $0x0,%al
  1051f6:	00 00                	add    %al,(%eax)
  1051f8:	00 09                	add    %cl,(%ecx)
  1051fa:	00 00                	add    %al,(%eax)
  1051fc:	25 d8 ff ff 17       	and    $0x17ffffd8,%eax
  105201:	00 00                	add    %al,(%eax)
  105203:	00 00                	add    %al,(%eax)
  105205:	41                   	inc    %ecx
  105206:	0e                   	push   %cs
  105207:	08 85 02 42 0d 05    	or     %al,0x50d4202(%ebp)
  10520d:	53                   	push   %ebx
  10520e:	c5 0c 04             	lds    (%esp,%eax,1),%ecx
  105211:	04 00                	add    $0x0,%al
  105213:	00 1c 00             	add    %bl,(%eax,%eax,1)
  105216:	00 00                	add    %al,(%eax)
  105218:	20 09                	and    %cl,(%ecx)
  10521a:	00 00                	add    %al,(%eax)
  10521c:	1c d8                	sbb    $0xd8,%al
  10521e:	ff                   	(bad)  
  10521f:	ff 30                	pushl  (%eax)
  105221:	00 00                	add    %al,(%eax)
  105223:	00 00                	add    %al,(%eax)
  105225:	41                   	inc    %ecx
  105226:	0e                   	push   %cs
  105227:	08 85 02 42 0d 05    	or     %al,0x50d4202(%ebp)
  10522d:	6c                   	insb   (%dx),%es:(%edi)
  10522e:	c5 0c 04             	lds    (%esp,%eax,1),%ecx
  105231:	04 00                	add    $0x0,%al
  105233:	00 1c 00             	add    %bl,(%eax,%eax,1)
  105236:	00 00                	add    %al,(%eax)
  105238:	40                   	inc    %eax
  105239:	09 00                	or     %eax,(%eax)
  10523b:	00 2c d8             	add    %ch,(%eax,%ebx,8)
  10523e:	ff                   	(bad)  
  10523f:	ff 15 00 00 00 00    	call   *0x0
  105245:	41                   	inc    %ecx
  105246:	0e                   	push   %cs
  105247:	08 85 02 42 0d 05    	or     %al,0x50d4202(%ebp)
  10524d:	51                   	push   %ecx
  10524e:	c5 0c 04             	lds    (%esp,%eax,1),%ecx
  105251:	04 00                	add    $0x0,%al
  105253:	00 1c 00             	add    %bl,(%eax,%eax,1)
  105256:	00 00                	add    %al,(%eax)
  105258:	60                   	pusha  
  105259:	09 00                	or     %eax,(%eax)
  10525b:	00 21                	add    %ah,(%ecx)
  10525d:	d8 ff                	fdivr  %st(7),%st
  10525f:	ff 8e 01 00 00 00    	decl   0x1(%esi)
  105265:	41                   	inc    %ecx
  105266:	0e                   	push   %cs
  105267:	08 85 02 42 0d 05    	or     %al,0x50d4202(%ebp)
  10526d:	45                   	inc    %ebp
  10526e:	86 03                	xchg   %al,(%ebx)
  105270:	83 04 00 00          	addl   $0x0,(%eax,%eax,1)
  105274:	20 00                	and    %al,(%eax)
  105276:	00 00                	add    %al,(%eax)
  105278:	80 09 00             	orb    $0x0,(%ecx)
  10527b:	00 8f d9 ff ff fb    	add    %cl,-0x4000027(%edi)
  105281:	00 00                	add    %al,(%eax)
  105283:	00 00                	add    %al,(%eax)
  105285:	41                   	inc    %ecx
  105286:	0e                   	push   %cs
  105287:	08 85 02 42 0d 05    	or     %al,0x50d4202(%ebp)
  10528d:	44                   	inc    %esp
  10528e:	83 03 02             	addl   $0x2,(%ebx)
  105291:	f2 c3                	bnd ret 
  105293:	41                   	inc    %ecx
  105294:	c5 0c 04             	lds    (%esp,%eax,1),%ecx
  105297:	04 1c                	add    $0x1c,%al
  105299:	00 00                	add    %al,(%eax)
  10529b:	00 a4 09 00 00 66 da 	add    %ah,-0x259a0000(%ecx,%ecx,1)
  1052a2:	ff                   	(bad)  
  1052a3:	ff 8b 00 00 00 00    	decl   0x0(%ebx)
  1052a9:	41                   	inc    %ecx
  1052aa:	0e                   	push   %cs
  1052ab:	08 85 02 42 0d 05    	or     %al,0x50d4202(%ebp)
  1052b1:	02 87 c5 0c 04 04    	add    0x4040cc5(%edi),%al
  1052b7:	00 1c 00             	add    %bl,(%eax,%eax,1)
  1052ba:	00 00                	add    %al,(%eax)
  1052bc:	c4 09                	les    (%ecx),%ecx
  1052be:	00 00                	add    %al,(%eax)
  1052c0:	d1 da                	rcr    %edx
  1052c2:	ff                   	(bad)  
  1052c3:	ff 5b 00             	lcall  *0x0(%ebx)
  1052c6:	00 00                	add    %al,(%eax)
  1052c8:	00 41 0e             	add    %al,0xe(%ecx)
  1052cb:	08 85 02 42 0d 05    	or     %al,0x50d4202(%ebp)
  1052d1:	02 57 c5             	add    -0x3b(%edi),%dl
  1052d4:	0c 04                	or     $0x4,%al
  1052d6:	04 00                	add    $0x0,%al
  1052d8:	1c 00                	sbb    $0x0,%al
  1052da:	00 00                	add    %al,(%eax)
  1052dc:	e4 09                	in     $0x9,%al
  1052de:	00 00                	add    %al,(%eax)
  1052e0:	0c db                	or     $0xdb,%al
  1052e2:	ff                   	(bad)  
  1052e3:	ff 80 01 00 00 00    	incl   0x1(%eax)
  1052e9:	41                   	inc    %ecx
  1052ea:	0e                   	push   %cs
  1052eb:	08 85 02 42 0d 05    	or     %al,0x50d4202(%ebp)
  1052f1:	03 7c 01 c5          	add    -0x3b(%ecx,%eax,1),%edi
  1052f5:	0c 04                	or     $0x4,%al
  1052f7:	04 28                	add    $0x28,%al
  1052f9:	00 00                	add    %al,(%eax)
  1052fb:	00 04 0a             	add    %al,(%edx,%ecx,1)
  1052fe:	00 00                	add    %al,(%eax)
  105300:	6c                   	insb   (%dx),%es:(%edi)
  105301:	dc ff                	fdivr  %st,%st(7)
  105303:	ff 47 02             	incl   0x2(%edi)
  105306:	00 00                	add    %al,(%eax)
  105308:	00 41 0e             	add    %al,0xe(%ecx)
  10530b:	08 85 02 42 0d 05    	or     %al,0x50d4202(%ebp)
  105311:	45                   	inc    %ebp
  105312:	86 03                	xchg   %al,(%ebx)
  105314:	83 04 03 3c          	addl   $0x3c,(%ebx,%eax,1)
  105318:	02 c3                	add    %bl,%al
  10531a:	41                   	inc    %ecx
  10531b:	c6 41 c5 0c          	movb   $0xc,-0x3b(%ecx)
  10531f:	04 04                	add    $0x4,%al
  105321:	00 00                	add    %al,(%eax)
  105323:	00 1c 00             	add    %bl,(%eax,%eax,1)
  105326:	00 00                	add    %al,(%eax)
  105328:	30 0a                	xor    %cl,(%edx)
  10532a:	00 00                	add    %al,(%eax)
  10532c:	87 de                	xchg   %ebx,%esi
  10532e:	ff                   	(bad)  
  10532f:	ff                   	(bad)  
  105330:	3f                   	aas    
  105331:	00 00                	add    %al,(%eax)
  105333:	00 00                	add    %al,(%eax)
  105335:	41                   	inc    %ecx
  105336:	0e                   	push   %cs
  105337:	08 85 02 42 0d 05    	or     %al,0x50d4202(%ebp)
  10533d:	7b c5                	jnp    105304 <__stpcpy+0x1906>
  10533f:	0c 04                	or     $0x4,%al
  105341:	04 00                	add    $0x0,%al
  105343:	00 1c 00             	add    %bl,(%eax,%eax,1)
  105346:	00 00                	add    %al,(%eax)
  105348:	50                   	push   %eax
  105349:	0a 00                	or     (%eax),%al
  10534b:	00 a6 de ff ff 1d    	add    %ah,0x1dffffde(%esi)
  105351:	00 00                	add    %al,(%eax)
  105353:	00 00                	add    %al,(%eax)
  105355:	41                   	inc    %ecx
  105356:	0e                   	push   %cs
  105357:	08 85 02 42 0d 05    	or     %al,0x50d4202(%ebp)
  10535d:	59                   	pop    %ecx
  10535e:	c5 0c 04             	lds    (%esp,%eax,1),%ecx
  105361:	04 00                	add    $0x0,%al
  105363:	00 1c 00             	add    %bl,(%eax,%eax,1)
  105366:	00 00                	add    %al,(%eax)
  105368:	70 0a                	jo     105374 <__stpcpy+0x1976>
  10536a:	00 00                	add    %al,(%eax)
  10536c:	a3 de ff ff 7d       	mov    %eax,0x7dffffde
  105371:	00 00                	add    %al,(%eax)
  105373:	00 00                	add    %al,(%eax)
  105375:	41                   	inc    %ecx
  105376:	0e                   	push   %cs
  105377:	08 85 02 42 0d 05    	or     %al,0x50d4202(%ebp)
  10537d:	02 79 c5             	add    -0x3b(%ecx),%bh
  105380:	0c 04                	or     $0x4,%al
  105382:	04 00                	add    $0x0,%al
  105384:	1c 00                	sbb    $0x0,%al
  105386:	00 00                	add    %al,(%eax)
  105388:	90                   	nop
  105389:	0a 00                	or     (%eax),%al
  10538b:	00 00                	add    %al,(%eax)
  10538d:	df ff                	(bad)  
  10538f:	ff 76 00             	pushl  0x0(%esi)
  105392:	00 00                	add    %al,(%eax)
  105394:	00 41 0e             	add    %al,0xe(%ecx)
  105397:	08 85 02 42 0d 05    	or     %al,0x50d4202(%ebp)
  10539d:	02 72 c5             	add    -0x3b(%edx),%dh
  1053a0:	0c 04                	or     $0x4,%al
  1053a2:	04 00                	add    $0x0,%al
  1053a4:	1c 00                	sbb    $0x0,%al
  1053a6:	00 00                	add    %al,(%eax)
  1053a8:	b0 0a                	mov    $0xa,%al
  1053aa:	00 00                	add    %al,(%eax)
  1053ac:	56                   	push   %esi
  1053ad:	df ff                	(bad)  
  1053af:	ff                   	(bad)  
  1053b0:	fc                   	cld    
  1053b1:	06                   	push   %es
  1053b2:	00 00                	add    %al,(%eax)
  1053b4:	00 41 0e             	add    %al,0xe(%ecx)
  1053b7:	08 85 02 42 0d 05    	or     %al,0x50d4202(%ebp)
  1053bd:	03 f8                	add    %eax,%edi
  1053bf:	06                   	push   %es
  1053c0:	c5 0c 04             	lds    (%esp,%eax,1),%ecx
  1053c3:	04 1c                	add    $0x1c,%al
  1053c5:	00 00                	add    %al,(%eax)
  1053c7:	00 d0                	add    %dl,%al
  1053c9:	0a 00                	or     (%eax),%al
  1053cb:	00 32                	add    %dh,(%edx)
  1053cd:	e6 ff                	out    %al,$0xff
  1053cf:	ff                   	(bad)  
  1053d0:	bd 00 00 00 00       	mov    $0x0,%ebp
  1053d5:	41                   	inc    %ecx
  1053d6:	0e                   	push   %cs
  1053d7:	08 85 02 42 0d 05    	or     %al,0x50d4202(%ebp)
  1053dd:	02 b9 c5 0c 04 04    	add    0x4040cc5(%ecx),%bh
	...

Disassembly of section .data:

00106000 <gdt>:
	...
  106008:	ff                   	(bad)  
  106009:	ff 00                	incl   (%eax)
  10600b:	00 00                	add    %al,(%eax)
  10600d:	9a cf 00 ff ff 00 00 	lcall  $0x0,$0xffff00cf
  106014:	00 92 cf 00 ff ff    	add    %dl,-0xff31(%edx)
  10601a:	00 00                	add    %al,(%eax)
  10601c:	00 fa                	add    %bh,%dl
  10601e:	cf                   	iret   
  10601f:	00 ff                	add    %bh,%bh
  106021:	ff 00                	incl   (%eax)
  106023:	00 00                	add    %al,(%eax)
  106025:	f2 cf                	repnz iret 
	...

00106028 <gdt_size_minus_one>:
  106028:	27                   	daa    
	...

00106040 <keys>:
	...
  10604c:	00 09                	add    %cl,(%ecx)
  10604e:	7e 00                	jle    106050 <keys+0x10>
  106050:	00 00                	add    %al,(%eax)
  106052:	00 00                	add    %al,(%eax)
  106054:	00 71 31             	add    %dh,0x31(%ecx)
  106057:	00 00                	add    %al,(%eax)
  106059:	00 7a 73             	add    %bh,0x73(%edx)
  10605c:	61                   	popa   
  10605d:	77 32                	ja     106091 <keys+0x51>
  10605f:	00 00                	add    %al,(%eax)
  106061:	63 78 64             	arpl   %di,0x64(%eax)
  106064:	65                   	gs
  106065:	34 33                	xor    $0x33,%al
  106067:	00 00                	add    %al,(%eax)
  106069:	20 76 66             	and    %dh,0x66(%esi)
  10606c:	74 72                	je     1060e0 <keys+0xa0>
  10606e:	35 00 00 6e 62       	xor    $0x626e0000,%eax
  106073:	68 67 79 36 00       	push   $0x367967
  106078:	00 00                	add    %al,(%eax)
  10607a:	6d                   	insl   (%dx),%es:(%edi)
  10607b:	6a 75                	push   $0x75
  10607d:	37                   	aaa    
  10607e:	38 00                	cmp    %al,(%eax)
  106080:	00 2c 6b             	add    %ch,(%ebx,%ebp,2)
  106083:	69 6f 30 39 00 00 2e 	imul   $0x2e000039,0x30(%edi),%ebp
  10608a:	2f                   	das    
  10608b:	6c                   	insb   (%dx),%es:(%edi)
  10608c:	3b 70 2d             	cmp    0x2d(%eax),%esi
  10608f:	00 00                	add    %al,(%eax)
  106091:	00 27                	add    %ah,(%edi)
  106093:	00 5b 3d             	add    %bl,0x3d(%ebx)
  106096:	00 00                	add    %al,(%eax)
  106098:	00 00                	add    %al,(%eax)
  10609a:	0a 5d 00             	or     0x0(%ebp),%bl
  10609d:	5c                   	pop    %esp
	...
  1060a6:	08 00                	or     %al,(%eax)
	...

Disassembly of section .bss:

00107000 <use>:
  107000:	00 00                	add    %al,(%eax)
	...

00107004 <first_page_table>:
  107004:	00 00                	add    %al,(%eax)
	...

00107008 <column>:
  107008:	00 00                	add    %al,(%eax)
	...

0010700c <scancode>:
	...

0010700d <failedOnce>:
	...

0010700e <done>:
	...

00107010 <RSDPtable>:
  107010:	00 00                	add    %al,(%eax)
	...

00107014 <totalMem>:
  107014:	00 00                	add    %al,(%eax)
	...

00107018 <first_free_addr>:
  107018:	00 00                	add    %al,(%eax)
	...

0010701c <buffer>:
  10701c:	00 00                	add    %al,(%eax)
	...

00107020 <previous>:
  107020:	00 00                	add    %al,(%eax)
	...

00107024 <tab_size>:
  107024:	00 00                	add    %al,(%eax)
	...

00107028 <loc>:
  107028:	00 00                	add    %al,(%eax)
	...

0010702c <rsdt>:
  10702c:	00 00                	add    %al,(%eax)
	...

00107030 <port1OK>:
  107030:	00 00                	add    %al,(%eax)
	...

00107034 <RSDP20table>:
  107034:	00 00                	add    %al,(%eax)
	...

00107038 <key_last_released>:
	...

00107039 <color>:
	...

0010703a <isDual>:
	...

0010703c <ticks>:
  10703c:	00 00                	add    %al,(%eax)
	...

00107040 <port2OK>:
  107040:	00 00                	add    %al,(%eax)
	...

00107044 <found>:
  107044:	00 00                	add    %al,(%eax)
	...

00107048 <free_at>:
  107048:	00 00                	add    %al,(%eax)
	...

0010704c <RSDtable>:
  10704c:	00 00                	add    %al,(%eax)
	...

00107050 <page_directory>:
  107050:	00 00                	add    %al,(%eax)
	...

00107054 <height>:
  107054:	00 00                	add    %al,(%eax)
	...

00107058 <width>:
  107058:	00 00                	add    %al,(%eax)
	...

0010705c <row>:
  10705c:	00 00                	add    %al,(%eax)
	...

00107060 <usableMem>:
  107060:	00 00                	add    %al,(%eax)
	...

00107064 <elf>:
	...

00107080 <isrHandlers>:
	...

00107100 <irqHandlers>:
	...

00107140 <idt>:
	...

00107940 <stack_bottom>:
	...

Disassembly of section .comment:

00000000 <.comment>:
   0:	47                   	inc    %edi
   1:	43                   	inc    %ebx
   2:	43                   	inc    %ebx
   3:	3a 20                	cmp    (%eax),%ah
   5:	28 47 4e             	sub    %al,0x4e(%edi)
   8:	55                   	push   %ebp
   9:	29 20                	sub    %esp,(%eax)
   b:	34 2e                	xor    $0x2e,%al
   d:	38 2e                	cmp    %ch,(%esi)
   f:	35                   	.byte 0x35
	...
